; ModuleID = 'ld-temp.o'
source_filename = "ld-temp.o"
target datalayout = "e-m:e-i64:64-f80:128-n8:16:32:64-S128"
target triple = "x86_64-unknown-linux-gnu"

%class.GooString = type { [24 x i8], i32, i8* }
%struct._IO_FILE = type { i32, i8*, i8*, i8*, i8*, i8*, i8*, i8*, i8*, i8*, i8*, i8*, %struct._IO_marker*, %struct._IO_FILE*, i32, i32, i64, i16, i8, [1 x i8], i8*, i64, i8*, i8*, i8*, i8*, i64, i32, [20 x i8] }
%struct._IO_marker = type { %struct._IO_marker*, %struct._IO_FILE*, i32 }
%struct._cairo_surface = type opaque
%struct.ArgDesc = type { i8*, i32, i8*, i32, i8* }
%class.GlobalParams = type { %class.NameToCharCode*, %class.NameToCharCode*, %class.GooHash*, %class.GooHash*, %class.GooHash*, %class.GooHash*, %class.GooHash*, %class.GooList*, i8, %class.GooHash*, %class.GooList*, %class.GooHash*, %class.SysFontList*, %class.GooString*, i8, i8, i8, i32, %class.GooHash*, %class.GooList*, %class.GooList*, i8, i8, i8, i8, i8, i8, i8, i8, i8, i8, double, i8, %class.GooString*, i32, i8, i8, i8, i8, i8, i8, i8, i8, i32, i32, i32, double, double, double, double, i8, i8, i8, i8, i8, i8, double, %class.CharCodeToUnicodeCache*, %class.CharCodeToUnicodeCache*, %class.UnicodeMapCache*, %class.CMapCache*, %union.pthread_mutex_t, %union.pthread_mutex_t, %union.pthread_mutex_t, i8* }
%class.NameToCharCode = type opaque
%class.SysFontList = type opaque
%class.GooHash = type opaque
%class.GooList = type opaque
%class.CharCodeToUnicodeCache = type opaque
%class.UnicodeMapCache = type opaque
%class.CMapCache = type opaque
%union.pthread_mutex_t = type { %"struct.(anonymous union)::__pthread_mutex_s" }
%"struct.(anonymous union)::__pthread_mutex_s" = type { i32, i32, i32, i32, i32, i16, i16, %struct.__pthread_internal_list }
%struct.__pthread_internal_list = type { %struct.__pthread_internal_list*, %struct.__pthread_internal_list* }
%class.ImgWriter = type { i32 (...)** }
%class.PNGWriter = type { %class.ImgWriter, %class.PNGWriterPrivate* }
%class.PNGWriterPrivate = type opaque
%class.JpegWriter = type { %class.ImgWriter, %struct.JpegWriterPrivate* }
%struct.JpegWriterPrivate = type opaque
%class.PDFDoc = type { %class.GooString*, %struct._IO_FILE*, %class.BaseStream*, i8*, i32, i32, %class.Linearization*, %class.XRef*, %class.SecurityHandler*, %class.Catalog*, %class.Hints*, %class.Outline*, %class.Page**, i8, i32, i32, i32 }
%class.BaseStream = type { %class.Stream.base, i32, %class.Object }
%class.Stream.base = type <{ i32 (...)**, i32 }>
%class.Object = type { i32, %union.anon }
%union.anon = type { double }
%class.Linearization = type opaque
%class.XRef = type <{ %class.BaseStream*, i32, [4 x i8], %struct.XRefEntry*, i32, i32, i32, i32, i8, [3 x i8], i32, %class.Object, i32*, i32, [4 x i8], %class.PopplerCache*, i8, [3 x i8], i32, i32, i32, i32, i32, [32 x i8], i8, [3 x i8], i32, i32, i8, [3 x i8], i32, i8, [3 x i8] }>
%struct.XRefEntry = type { i32, i32, i32, i32, %class.Object }
%class.PopplerCache = type opaque
%class.SecurityHandler = type opaque
%class.Catalog = type { %class.PDFDoc*, %class.XRef*, %class.Page**, %struct.Ref*, i32, %"class.std::vector"*, %"class.std::vector.0"*, %"class.std::vector.1"*, %"class.std::vector.2"*, %class.Form*, %class.ViewerPreferences*, i32, i32, %class.Object, %class.Object, %class.NameTree*, %class.NameTree*, %class.NameTree*, %class.GooString*, %class.Object, %class.Object, %class.Object, %class.Object, %class.Object, %class.OCGs*, i8, %class.PageLabelInfo*, i32, i32 }
%struct.Ref = type { i32, i32 }
%"class.std::vector" = type opaque
%"class.std::vector.0" = type opaque
%"class.std::vector.1" = type opaque
%"class.std::vector.2" = type opaque
%class.Form = type opaque
%class.ViewerPreferences = type opaque
%class.NameTree = type { %class.XRef*, %class.Object*, %"struct.NameTree::Entry"**, i32, i32 }
%"struct.NameTree::Entry" = type { %class.GooString, %class.Object }
%class.OCGs = type { i8, %class.GooList*, %class.Object, %class.Object, %class.XRef*, %class.OCDisplayNode* }
%class.OCDisplayNode = type { %class.GooString*, %class.OptionalContentGroup*, %class.GooList* }
%class.OptionalContentGroup = type <{ %class.XRef*, %class.GooString*, %struct.Ref, i32, i32, i32, [4 x i8] }>
%class.PageLabelInfo = type opaque
%class.Hints = type opaque
%class.Outline = type opaque
%class.Page = type <{ %class.PDFDoc*, %class.XRef*, %class.Object, %struct.Ref, i32, [4 x i8], %class.PageAttrs*, %class.Annots*, %class.Object, %class.Object, %class.Object, %class.Object, %class.Object, double, i8, [7 x i8] }>
%class.PageAttrs = type { %class.PDFRectangle, %class.PDFRectangle, i8, %class.PDFRectangle, %class.PDFRectangle, %class.PDFRectangle, i32, %class.Object, %class.Object, %class.Object, %class.Object, %class.Object, %class.Object, %class.Object }
%class.PDFRectangle = type { double, double, double, double }
%class.Annots = type { %class.PDFDoc*, %class.Annot**, i32, i32 }
%class.Annot = type <{ i32 (...)**, i32, [4 x i8], %class.Object, i32, [4 x i8], %class.PDFRectangle*, %class.GooString*, i32, [4 x i8], %class.GooString*, %class.GooString*, i32, [4 x i8], %class.AnnotAppearance*, %class.Object, %class.AnnotAppearanceBBox*, %class.GooString*, i32, [4 x i8], %class.Object, %class.PDFDoc*, %class.XRef*, %struct.Ref, %class.GooString*, %class.AnnotBorder*, %class.AnnotColor*, double, i8, i8, [6 x i8] }>
%class.AnnotAppearance = type { %class.PDFDoc*, %class.XRef*, %class.Object }
%class.AnnotAppearanceBBox = type { double, double, double, double, double, double, double }
%class.AnnotBorder = type <{ i32 (...)**, i32, [4 x i8], double, i32, [4 x i8], double*, i32, [4 x i8] }>
%class.AnnotColor = type <{ [4 x double], i32, [4 x i8] }>
%class.CairoOutputDev = type { %class.OutputDev, %struct.GfxRGB, %struct.GfxRGB, %struct._cairo_pattern*, %struct._cairo_pattern*, double, double, i8, i8, i8, %class.CairoFont*, %"struct.CairoOutputDev::StrokePathClip"*, %class.PDFDoc*, %class.CairoFontEngine*, i8, %struct._cairo*, %struct._cairo_matrix, i8, i8, i8, %struct._cairo_surface*, %struct.cairo_glyph_t*, i32, %struct.Ref*, i32, i8*, i32, i32, %struct.cairo_path*, i8, double, double, i8, [4 x double], i8, %class.TextPage*, %class.ActualText*, %struct._cairo_pattern*, %struct._cairo_pattern*, %struct._cairo_pattern*, %struct._cairo_matrix, %struct._cairo_surface*, %struct._cairo*, i32, %"struct.CairoOutputDev::ColorSpaceStack"*, %"struct.CairoOutputDev::MaskStack"* }
%class.OutputDev = type { i32 (...)**, [6 x double], [6 x double], %class.GooHash* }
%struct.GfxRGB = type { i32, i32, i32 }
%class.CairoFont = type opaque
%"struct.CairoOutputDev::StrokePathClip" = type { %class.GfxPath*, %struct._cairo_matrix, double, double*, i32, double, i32, i32, double }
%class.GfxPath = type { i8, double, double, %class.GfxSubpath**, i32, i32 }
%class.GfxSubpath = type <{ double*, double*, i8*, i32, i32, i8, [7 x i8] }>
%class.CairoFontEngine = type opaque
%struct.cairo_glyph_t = type { i64, double, double }
%struct.cairo_path = type { i32, %union._cairo_path_data_t*, i32 }
%union._cairo_path_data_t = type { %struct.anon.3 }
%struct.anon.3 = type { double, double }
%class.TextPage = type <{ i8, [7 x i8], double, double, %class.TextWord*, i32, [4 x i8], %class.TextFontInfo*, double, i32, i32, i8, [7 x i8], [4 x %class.TextPool*], %class.TextFlow*, %class.TextBlock**, i32, i32, i8, [7 x i8], %class.TextWord*, %class.TextWord*, %class.GooList*, double, double, i8, [7 x i8], %class.GooList*, %class.GooList*, i32, [4 x i8] }>
%class.TextFontInfo = type <{ %class.GfxFont*, %class.GooString*, i32, [4 x i8] }>
%class.GfxFont = type { i32 (...)**, %class.GooString*, %struct.Ref, %class.GooString*, %class.GooString*, i32, i32, i32, i32, %class.GooString*, %struct.Ref, [6 x double], [4 x double], double, double, double, i32, i8, i8, %class.GooString* }
%class.TextPool = type <{ i32, i32, %class.TextWord**, %class.TextWord*, i32, [4 x i8] }>
%class.TextFlow = type { %class.TextPage*, double, double, double, double, double, double, %class.TextBlock*, %class.TextBlock*, %class.TextFlow* }
%class.TextBlock = type { %class.TextPage*, i32, double, double, double, double, double, double, double, double, double, double, i32, i8, %class.TextPool*, %class.TextLine*, %class.TextLine*, i32, i32, i32, i32, %class.TextBlock*, %class.TextBlock* }
%class.TextLine = type { %class.TextBlock*, i32, double, double, double, double, double, %class.TextWord*, %class.TextWord*, i32*, double*, i32*, i32, i32, i8, %class.TextLine*, i32*, i32, i32* }
%class.TextWord = type { i32, double, double, double, double, double, i32*, i32*, double*, i32*, i32, i32, %class.TextFontInfo**, double, i8, %class.TextWord*, i32, double, double, double, i8, %class.AnnotLink* }
%class.AnnotLink = type { %class.Annot.base, %class.LinkAction*, i32, %class.Dict*, %class.AnnotQuadrilaterals* }
%class.Annot.base = type <{ i32 (...)**, i32, [4 x i8], %class.Object, i32, [4 x i8], %class.PDFRectangle*, %class.GooString*, i32, [4 x i8], %class.GooString*, %class.GooString*, i32, [4 x i8], %class.AnnotAppearance*, %class.Object, %class.AnnotAppearanceBBox*, %class.GooString*, i32, [4 x i8], %class.Object, %class.PDFDoc*, %class.XRef*, %struct.Ref, %class.GooString*, %class.AnnotBorder*, %class.AnnotColor*, double, i8, i8 }>
%class.LinkAction = type opaque
%class.Dict = type <{ i8, [7 x i8], %class.XRef*, %struct.DictEntry*, i32, i32, i32, [4 x i8] }>
%struct.DictEntry = type { i8*, %class.Object }
%class.AnnotQuadrilaterals = type <{ %"class.AnnotQuadrilaterals::AnnotQuadrilateral"**, i32, [4 x i8] }>
%"class.AnnotQuadrilaterals::AnnotQuadrilateral" = type { %struct.anon.3, %struct.anon.3, %struct.anon.3, %struct.anon.3 }
%class.ActualText = type <{ %class.TextPage*, %class.GooString*, double, double, double, double, i32, [4 x i8] }>
%struct._cairo_pattern = type opaque
%struct._cairo_matrix = type { double, double, double, double, double, double }
%struct._cairo = type opaque
%"struct.CairoOutputDev::ColorSpaceStack" = type { i8, %class.GfxColorSpace*, %struct._cairo_matrix, %"struct.CairoOutputDev::ColorSpaceStack"* }
%class.GfxColorSpace = type { i32 (...)**, i32, i32* }
%"struct.CairoOutputDev::MaskStack" = type { %struct._cairo_pattern*, %struct._cairo_matrix, %"struct.CairoOutputDev::MaskStack"* }
%class.PDFDocFactory = type { %class.GooList* }

$_ZNK9GooString10getCStringEv = comdat any

$_ZN6PDFDoc4isOkEv = comdat any

$_ZN6PDFDoc16getPageCropWidthEi = comdat any

$_ZN6PDFDoc17getPageCropHeightEi = comdat any

$_ZN6PDFDoc17getPageMediaWidthEi = comdat any

$_ZN6PDFDoc18getPageMediaHeightEi = comdat any

$_ZN6PDFDoc13getPageRotateEi = comdat any

$_ZN14CairoOutputDev11setPrintingEb = comdat any

$_ZN4Page9getRotateEv = comdat any

$_ZN9PageAttrs9getRotateEv = comdat any

$_ZN4Page14getMediaHeightEv = comdat any

$_ZN9PageAttrs11getMediaBoxEv = comdat any

$_ZN4Page13getMediaWidthEv = comdat any

$_ZN4Page13getCropHeightEv = comdat any

$_ZN9PageAttrs10getCropBoxEv = comdat any

$_ZN4Page12getCropWidthEv = comdat any

$_ZN9GooString9getLengthEv = comdat any

@llvm.global_ctors = appending global [1 x { i32, void ()*, i8* }] [{ i32, void ()*, i8* } { i32 65535, void ()* @_GLOBAL__sub_I_pdftocairo.cc, i8* null }]
@_ZL3icc = internal global %class.GooString zeroinitializer, align 8, !dbg !0
@__dso_handle = external hidden global i8
@_ZL3png = internal global i8 0, align 1, !dbg !1421
@_ZL6transp = internal global i8 0, align 1, !dbg !1423
@_ZL4gray = internal global i8 0, align 1, !dbg !1425
@_ZL4mono = internal global i8 0, align 1, !dbg !1427
@_ZL4jpeg = internal global i8 0, align 1, !dbg !1429
@_ZL4tiff = internal global i8 0, align 1, !dbg !1431
@.str = private unnamed_addr constant [7 x i8] c"fd://0\00", align 1
@stdout = external global %struct._IO_FILE*, align 8
@.str.1 = private unnamed_addr constant [3 x i8] c"wb\00", align 1
@stderr = external global %struct._IO_FILE*, align 8
@.str.2 = private unnamed_addr constant [30 x i8] c"Error opening output file %s\0A\00", align 1
@_ZL7surface = internal global %struct._cairo_surface* null, align 8, !dbg !1433
@_ZL12x_resolution = internal global double 1.500000e+02, align 8, !dbg !1438
@_ZL12y_resolution = internal global double 1.500000e+02, align 8, !dbg !1440
@.str.3 = private unnamed_addr constant [18 x i8] c"Error writing %s\0A\00", align 1
@_ZL7argDesc = internal constant [46 x %struct.ArgDesc] [%struct.ArgDesc { i8* getelementptr inbounds ([5 x i8], [5 x i8]* @.str.41, i32 0, i32 0), i32 0, i8* @_ZL3png, i32 0, i8* getelementptr inbounds ([20 x i8], [20 x i8]* @.str.42, i32 0, i32 0) }, %struct.ArgDesc { i8* getelementptr inbounds ([6 x i8], [6 x i8]* @.str.43, i32 0, i32 0), i32 0, i8* @_ZL4jpeg, i32 0, i8* getelementptr inbounds ([21 x i8], [21 x i8]* @.str.44, i32 0, i32 0) }, %struct.ArgDesc { i8* getelementptr inbounds ([4 x i8], [4 x i8]* @.str.45, i32 0, i32 0), i32 0, i8* @_ZL2ps, i32 0, i8* getelementptr inbounds ([25 x i8], [25 x i8]* @.str.46, i32 0, i32 0) }, %struct.ArgDesc { i8* getelementptr inbounds ([5 x i8], [5 x i8]* @.str.47, i32 0, i32 0), i32 0, i8* @_ZL3eps, i32 0, i8* getelementptr inbounds ([39 x i8], [39 x i8]* @.str.48, i32 0, i32 0) }, %struct.ArgDesc { i8* getelementptr inbounds ([5 x i8], [5 x i8]* @.str.49, i32 0, i32 0), i32 0, i8* @_ZL3pdf, i32 0, i8* getelementptr inbounds ([20 x i8], [20 x i8]* @.str.50, i32 0, i32 0) }, %struct.ArgDesc { i8* getelementptr inbounds ([5 x i8], [5 x i8]* @.str.51, i32 0, i32 0), i32 0, i8* @_ZL3svg, i32 0, i8* getelementptr inbounds ([47 x i8], [47 x i8]* @.str.52, i32 0, i32 0) }, %struct.ArgDesc { i8* getelementptr inbounds ([3 x i8], [3 x i8]* @.str.53, i32 0, i32 0), i32 1, i8* bitcast (i32* @_ZL9firstPage to i8*), i32 0, i8* getelementptr inbounds ([20 x i8], [20 x i8]* @.str.54, i32 0, i32 0) }, %struct.ArgDesc { i8* getelementptr inbounds ([3 x i8], [3 x i8]* @.str.55, i32 0, i32 0), i32 1, i8* bitcast (i32* @_ZL8lastPage to i8*), i32 0, i8* getelementptr inbounds ([19 x i8], [19 x i8]* @.str.56, i32 0, i32 0) }, %struct.ArgDesc { i8* getelementptr inbounds ([3 x i8], [3 x i8]* @.str.57, i32 0, i32 0), i32 0, i8* @_ZL12printOnlyOdd, i32 0, i8* getelementptr inbounds ([21 x i8], [21 x i8]* @.str.58, i32 0, i32 0) }, %struct.ArgDesc { i8* getelementptr inbounds ([3 x i8], [3 x i8]* @.str.59, i32 0, i32 0), i32 0, i8* @_ZL13printOnlyEven, i32 0, i8* getelementptr inbounds ([22 x i8], [22 x i8]* @.str.60, i32 0, i32 0) }, %struct.ArgDesc { i8* getelementptr inbounds ([12 x i8], [12 x i8]* @.str.17, i32 0, i32 0), i32 0, i8* @_ZL10singleFile, i32 0, i8* getelementptr inbounds ([48 x i8], [48 x i8]* @.str.61, i32 0, i32 0) }, %struct.ArgDesc { i8* getelementptr inbounds ([3 x i8], [3 x i8]* @.str.62, i32 0, i32 0), i32 2, i8* bitcast (double* @_ZL10resolution to i8*), i32 0, i8* getelementptr inbounds ([36 x i8], [36 x i8]* @.str.63, i32 0, i32 0) }, %struct.ArgDesc { i8* getelementptr inbounds ([4 x i8], [4 x i8]* @.str.64, i32 0, i32 0), i32 2, i8* bitcast (double* @_ZL12x_resolution to i8*), i32 0, i8* getelementptr inbounds ([38 x i8], [38 x i8]* @.str.65, i32 0, i32 0) }, %struct.ArgDesc { i8* getelementptr inbounds ([4 x i8], [4 x i8]* @.str.66, i32 0, i32 0), i32 2, i8* bitcast (double* @_ZL12y_resolution to i8*), i32 0, i8* getelementptr inbounds ([38 x i8], [38 x i8]* @.str.67, i32 0, i32 0) }, %struct.ArgDesc { i8* getelementptr inbounds ([10 x i8], [10 x i8]* @.str.68, i32 0, i32 0), i32 1, i8* bitcast (i32* @_ZL7scaleTo to i8*), i32 0, i8* getelementptr inbounds ([59 x i8], [59 x i8]* @.str.69, i32 0, i32 0) }, %struct.ArgDesc { i8* getelementptr inbounds ([12 x i8], [12 x i8]* @.str.70, i32 0, i32 0), i32 1, i8* bitcast (i32* @_ZL9x_scaleTo to i8*), i32 0, i8* getelementptr inbounds ([58 x i8], [58 x i8]* @.str.71, i32 0, i32 0) }, %struct.ArgDesc { i8* getelementptr inbounds ([12 x i8], [12 x i8]* @.str.72, i32 0, i32 0), i32 1, i8* bitcast (i32* @_ZL9y_scaleTo to i8*), i32 0, i8* getelementptr inbounds ([56 x i8], [56 x i8]* @.str.73, i32 0, i32 0) }, %struct.ArgDesc { i8* getelementptr inbounds ([3 x i8], [3 x i8]* @.str.74, i32 0, i32 0), i32 1, i8* bitcast (i32* @_ZL6crop_x to i8*), i32 0, i8* getelementptr inbounds ([46 x i8], [46 x i8]* @.str.75, i32 0, i32 0) }, %struct.ArgDesc { i8* getelementptr inbounds ([3 x i8], [3 x i8]* @.str.76, i32 0, i32 0), i32 1, i8* bitcast (i32* @_ZL6crop_y to i8*), i32 0, i8* getelementptr inbounds ([46 x i8], [46 x i8]* @.str.77, i32 0, i32 0) }, %struct.ArgDesc { i8* getelementptr inbounds ([3 x i8], [3 x i8]* @.str.78, i32 0, i32 0), i32 1, i8* bitcast (i32* @_ZL6crop_w to i8*), i32 0, i8* getelementptr inbounds ([44 x i8], [44 x i8]* @.str.79, i32 0, i32 0) }, %struct.ArgDesc { i8* getelementptr inbounds ([3 x i8], [3 x i8]* @.str.80, i32 0, i32 0), i32 1, i8* bitcast (i32* @_ZL6crop_h to i8*), i32 0, i8* getelementptr inbounds ([45 x i8], [45 x i8]* @.str.81, i32 0, i32 0) }, %struct.ArgDesc { i8* getelementptr inbounds ([4 x i8], [4 x i8]* @.str.82, i32 0, i32 0), i32 1, i8* bitcast (i32* @_ZL2sz to i8*), i32 0, i8* getelementptr inbounds ([45 x i8], [45 x i8]* @.str.83, i32 0, i32 0) }, %struct.ArgDesc { i8* getelementptr inbounds ([9 x i8], [9 x i8]* @.str.84, i32 0, i32 0), i32 0, i8* @_ZL10useCropBox, i32 0, i8* getelementptr inbounds ([39 x i8], [39 x i8]* @.str.85, i32 0, i32 0) }, %struct.ArgDesc { i8* getelementptr inbounds ([6 x i8], [6 x i8]* @.str.13, i32 0, i32 0), i32 0, i8* @_ZL4mono, i32 0, i8* getelementptr inbounds ([45 x i8], [45 x i8]* @.str.86, i32 0, i32 0) }, %struct.ArgDesc { i8* getelementptr inbounds ([6 x i8], [6 x i8]* @.str.14, i32 0, i32 0), i32 0, i8* @_ZL4gray, i32 0, i8* getelementptr inbounds ([44 x i8], [44 x i8]* @.str.87, i32 0, i32 0) }, %struct.ArgDesc { i8* getelementptr inbounds ([8 x i8], [8 x i8]* @.str.15, i32 0, i32 0), i32 0, i8* @_ZL6transp, i32 0, i8* getelementptr inbounds ([52 x i8], [52 x i8]* @.str.88, i32 0, i32 0) }, %struct.ArgDesc { i8* getelementptr inbounds ([8 x i8], [8 x i8]* @.str.18, i32 0, i32 0), i32 0, i8* @_ZL6level2, i32 0, i8* getelementptr inbounds ([38 x i8], [38 x i8]* @.str.89, i32 0, i32 0) }, %struct.ArgDesc { i8* getelementptr inbounds ([8 x i8], [8 x i8]* @.str.19, i32 0, i32 0), i32 0, i8* @_ZL6level3, i32 0, i8* getelementptr inbounds ([38 x i8], [38 x i8]* @.str.90, i32 0, i32 0) }, %struct.ArgDesc { i8* getelementptr inbounds ([15 x i8], [15 x i8]* @.str.20, i32 0, i32 0), i32 0, i8* @_ZL15doOrigPageSizes, i32 0, i8* getelementptr inbounds ([44 x i8], [44 x i8]* @.str.91, i32 0, i32 0) }, %struct.ArgDesc { i8* getelementptr inbounds ([7 x i8], [7 x i8]* @.str.21, i32 0, i32 0), i32 3, i8* getelementptr inbounds ([15 x i8], [15 x i8]* @_ZL9paperSize, i32 0, i32 0), i32 15, i8* getelementptr inbounds ([42 x i8], [42 x i8]* @.str.92, i32 0, i32 0) }, %struct.ArgDesc { i8* getelementptr inbounds ([8 x i8], [8 x i8]* @.str.22, i32 0, i32 0), i32 1, i8* bitcast (i32* @_ZL10paperWidth to i8*), i32 0, i8* getelementptr inbounds ([23 x i8], [23 x i8]* @.str.93, i32 0, i32 0) }, %struct.ArgDesc { i8* getelementptr inbounds ([8 x i8], [8 x i8]* @.str.23, i32 0, i32 0), i32 1, i8* bitcast (i32* @_ZL11paperHeight to i8*), i32 0, i8* getelementptr inbounds ([24 x i8], [24 x i8]* @.str.94, i32 0, i32 0) }, %struct.ArgDesc { i8* getelementptr inbounds ([8 x i8], [8 x i8]* @.str.24, i32 0, i32 0), i32 0, i8* @_ZL6noCrop, i32 0, i8* getelementptr inbounds ([28 x i8], [28 x i8]* @.str.95, i32 0, i32 0) }, %struct.ArgDesc { i8* getelementptr inbounds ([8 x i8], [8 x i8]* @.str.25, i32 0, i32 0), i32 0, i8* @_ZL6expand, i32 0, i8* getelementptr inbounds ([41 x i8], [41 x i8]* @.str.96, i32 0, i32 0) }, %struct.ArgDesc { i8* getelementptr inbounds ([10 x i8], [10 x i8]* @.str.26, i32 0, i32 0), i32 0, i8* @_ZL8noShrink, i32 0, i8* getelementptr inbounds ([46 x i8], [46 x i8]* @.str.97, i32 0, i32 0) }, %struct.ArgDesc { i8* getelementptr inbounds ([10 x i8], [10 x i8]* @.str.27, i32 0, i32 0), i32 0, i8* @_ZL8noCenter, i32 0, i8* getelementptr inbounds ([47 x i8], [47 x i8]* @.str.98, i32 0, i32 0) }, %struct.ArgDesc { i8* getelementptr inbounds ([8 x i8], [8 x i8]* @.str.28, i32 0, i32 0), i32 0, i8* @_ZL6duplex, i32 0, i8* getelementptr inbounds ([23 x i8], [23 x i8]* @.str.99, i32 0, i32 0) }, %struct.ArgDesc { i8* getelementptr inbounds ([5 x i8], [5 x i8]* @.str.100, i32 0, i32 0), i32 3, i8* getelementptr inbounds ([33 x i8], [33 x i8]* @_ZL13ownerPassword, i32 0, i32 0), i32 33, i8* getelementptr inbounds ([37 x i8], [37 x i8]* @.str.101, i32 0, i32 0) }, %struct.ArgDesc { i8* getelementptr inbounds ([5 x i8], [5 x i8]* @.str.102, i32 0, i32 0), i32 3, i8* getelementptr inbounds ([33 x i8], [33 x i8]* @_ZL12userPassword, i32 0, i32 0), i32 33, i8* getelementptr inbounds ([36 x i8], [36 x i8]* @.str.103, i32 0, i32 0) }, %struct.ArgDesc { i8* getelementptr inbounds ([3 x i8], [3 x i8]* @.str.104, i32 0, i32 0), i32 0, i8* @_ZL5quiet, i32 0, i8* getelementptr inbounds ([35 x i8], [35 x i8]* @.str.105, i32 0, i32 0) }, %struct.ArgDesc { i8* getelementptr inbounds ([3 x i8], [3 x i8]* @.str.106, i32 0, i32 0), i32 0, i8* @_ZL12printVersion, i32 0, i8* getelementptr inbounds ([33 x i8], [33 x i8]* @.str.107, i32 0, i32 0) }, %struct.ArgDesc { i8* getelementptr inbounds ([3 x i8], [3 x i8]* @.str.108, i32 0, i32 0), i32 0, i8* @_ZL9printHelp, i32 0, i8* getelementptr inbounds ([24 x i8], [24 x i8]* @.str.109, i32 0, i32 0) }, %struct.ArgDesc { i8* getelementptr inbounds ([6 x i8], [6 x i8]* @.str.110, i32 0, i32 0), i32 0, i8* @_ZL9printHelp, i32 0, i8* getelementptr inbounds ([24 x i8], [24 x i8]* @.str.109, i32 0, i32 0) }, %struct.ArgDesc { i8* getelementptr inbounds ([7 x i8], [7 x i8]* @.str.111, i32 0, i32 0), i32 0, i8* @_ZL9printHelp, i32 0, i8* getelementptr inbounds ([24 x i8], [24 x i8]* @.str.109, i32 0, i32 0) }, %struct.ArgDesc { i8* getelementptr inbounds ([3 x i8], [3 x i8]* @.str.112, i32 0, i32 0), i32 0, i8* @_ZL9printHelp, i32 0, i8* getelementptr inbounds ([24 x i8], [24 x i8]* @.str.109, i32 0, i32 0) }, %struct.ArgDesc zeroinitializer], align 16, !dbg !1442
@_ZL10resolution = internal global double 0.000000e+00, align 8, !dbg !1461
@_ZL12printVersion = internal global i8 0, align 1, !dbg !1463
@_ZL9printHelp = internal global i8 0, align 1, !dbg !1465
@.str.4 = private unnamed_addr constant [23 x i8] c"pdftocairo version %s\0A\00", align 1
@.str.5 = private unnamed_addr constant [7 x i8] c"0.22.0\00", align 1
@.str.6 = private unnamed_addr constant [4 x i8] c"%s\0A\00", align 1
@.str.7 = private unnamed_addr constant [76 x i8] c"Copyright 2005-2012 The Poppler Developers - http://poppler.freedesktop.org\00", align 1
@.str.8 = private unnamed_addr constant [37 x i8] c"Copyright 1996-2011 Glyph & Cog, LLC\00", align 1
@.str.9 = private unnamed_addr constant [11 x i8] c"pdftocairo\00", align 1
@.str.10 = private unnamed_addr constant [27 x i8] c"<PDF-file> [<output-file>]\00", align 1
@_ZL2ps = internal global i8 0, align 1, !dbg !1467
@_ZL3eps = internal global i8 0, align 1, !dbg !1469
@_ZL3pdf = internal global i8 0, align 1, !dbg !1471
@_ZL3svg = internal global i8 0, align 1, !dbg !1473
@.str.11 = private unnamed_addr constant [92 x i8] c"Error: one of the output format options (-png, -jpeg, -ps, -eps, -pdf, -svg) must be used.\0A\00", align 1
@.str.12 = private unnamed_addr constant [88 x i8] c"Error: use only one of the output format options (-png, -jpeg, -ps, -eps, -pdf, -svg).\0A\00", align 1
@_ZL8printing = internal global i8 0, align 1, !dbg !1475
@.str.13 = private unnamed_addr constant [6 x i8] c"-mono\00", align 1
@.str.14 = private unnamed_addr constant [6 x i8] c"-gray\00", align 1
@.str.15 = private unnamed_addr constant [8 x i8] c"-transp\00", align 1
@.str.16 = private unnamed_addr constant [5 x i8] c"-icc\00", align 1
@_ZL10singleFile = internal global i8 0, align 1, !dbg !1477
@.str.17 = private unnamed_addr constant [12 x i8] c"-singlefile\00", align 1
@_ZL6level2 = internal global i8 0, align 1, !dbg !1479
@.str.18 = private unnamed_addr constant [8 x i8] c"-level2\00", align 1
@_ZL6level3 = internal global i8 0, align 1, !dbg !1481
@.str.19 = private unnamed_addr constant [8 x i8] c"-level3\00", align 1
@_ZL15doOrigPageSizes = internal global i8 0, align 1, !dbg !1483
@.str.20 = private unnamed_addr constant [15 x i8] c"-origpagesizes\00", align 1
@_ZL9paperSize = internal global [15 x i8] zeroinitializer, align 1, !dbg !1485
@.str.21 = private unnamed_addr constant [7 x i8] c"-paper\00", align 1
@_ZL10paperWidth = internal global i32 -1, align 4, !dbg !1490
@.str.22 = private unnamed_addr constant [8 x i8] c"-paperw\00", align 1
@_ZL11paperHeight = internal global i32 -1, align 4, !dbg !1492
@.str.23 = private unnamed_addr constant [8 x i8] c"-paperh\00", align 1
@_ZL6noCrop = internal global i8 0, align 1, !dbg !1494
@.str.24 = private unnamed_addr constant [8 x i8] c"-nocrop\00", align 1
@_ZL6expand = internal global i8 0, align 1, !dbg !1496
@.str.25 = private unnamed_addr constant [8 x i8] c"-expand\00", align 1
@_ZL8noShrink = internal global i8 0, align 1, !dbg !1498
@.str.26 = private unnamed_addr constant [10 x i8] c"-noshrink\00", align 1
@_ZL8noCenter = internal global i8 0, align 1, !dbg !1500
@.str.27 = private unnamed_addr constant [10 x i8] c"-nocenter\00", align 1
@_ZL6duplex = internal global i8 0, align 1, !dbg !1502
@.str.28 = private unnamed_addr constant [8 x i8] c"-duplex\00", align 1
@.str.29 = private unnamed_addr constant [47 x i8] c"Error: -icc may only be used with png output.\0A\00", align 1
@.str.30 = private unnamed_addr constant [58 x i8] c"Error: -transp may only be used with png or tiff output.\0A\00", align 1
@.str.31 = private unnamed_addr constant [50 x i8] c"Error: -mono and -gray may not be used together.\0A\00", align 1
@.str.32 = private unnamed_addr constant [56 x i8] c"Error: -mono may only be used with png or tiff output.\0A\00", align 1
@_ZL18tiffCompressionStr = internal global [16 x i8] zeroinitializer, align 16, !dbg !1504
@.str.33 = private unnamed_addr constant [60 x i8] c"Error: -tiffcompression may only be used with tiff output.\0A\00", align 1
@.str.34 = private unnamed_addr constant [45 x i8] c"Error: use only one of the 'level' options.\0A\00", align 1
@.str.35 = private unnamed_addr constant [59 x i8] c"Error: page size options may not be used with eps output.\0A\00", align 1
@.str.36 = private unnamed_addr constant [20 x i8] c"Invalid paper size\0A\00", align 1
@globalParams = external global %class.GlobalParams*, align 8
@_ZL5quiet = internal global i8 0, align 1, !dbg !1509
@_ZL13ownerPassword = internal global [33 x i8] zeroinitializer, align 16, !dbg !1511
@_ZL12userPassword = internal global [33 x i8] zeroinitializer, align 16, !dbg !1516
@.str.37 = private unnamed_addr constant [2 x i8] c"-\00", align 1
@.str.38 = private unnamed_addr constant [25 x i8] c"Error opening PDF file.\0A\00", align 1
@_ZL9firstPage = internal global i32 1, align 4, !dbg !1518
@_ZL8lastPage = internal global i32 0, align 4, !dbg !1520
@.str.39 = private unnamed_addr constant [38 x i8] c"EPS files can only contain one page.\0A\00", align 1
@.str.40 = private unnamed_addr constant [65 x i8] c"Warning: Single file will write only the first of the %d pages.\0A\00", align 1
@_ZL13printOnlyEven = internal global i8 0, align 1, !dbg !1522
@_ZL12printOnlyOdd = internal global i8 0, align 1, !dbg !1524
@_ZL2sz = internal global i32 0, align 4, !dbg !1526
@_ZL6crop_h = internal global i32 0, align 4, !dbg !1528
@_ZL6crop_w = internal global i32 0, align 4, !dbg !1530
@_ZL10useCropBox = internal global i8 0, align 1, !dbg !1532
@_ZL7scaleTo = internal global i32 0, align 4, !dbg !1534
@_ZL9x_scaleTo = internal global i32 0, align 4, !dbg !1536
@_ZL9y_scaleTo = internal global i32 0, align 4, !dbg !1538
@.str.138 = private unnamed_addr constant [20 x i8] c"cairo error: {0:s}\0A\00", align 1
@_ZL11output_file = internal global %struct._IO_FILE* null, align 8, !dbg !1540
@_ZL6crop_x = internal global i32 0, align 4, !dbg !1457
@_ZL6crop_y = internal global i32 0, align 4, !dbg !1459
@.str.136 = private unnamed_addr constant [29 x i8] c"%%PageOrientation: Landscape\00", align 1
@.str.137 = private unnamed_addr constant [28 x i8] c"%%PageOrientation: Portrait\00", align 1
@.str.134 = private unnamed_addr constant [23 x i8] c"%%Requirements: duplex\00", align 1
@.str.135 = private unnamed_addr constant [41 x i8] c"%%IncludeFeature: *Duplex DuplexNoTumble\00", align 1
@.str.130 = private unnamed_addr constant [6 x i8] c"-%0*d\00", align 1
@.str.131 = private unnamed_addr constant [5 x i8] c".png\00", align 1
@.str.132 = private unnamed_addr constant [5 x i8] c".jpg\00", align 1
@.str.133 = private unnamed_addr constant [5 x i8] c".tif\00", align 1
@.str.120 = private unnamed_addr constant [101 x i8] c"Error: stdout may only be used with the ps, eps, pdf, svg output options or if -singlefile is used.\0A\00", align 1
@.str.121 = private unnamed_addr constant [79 x i8] c"Error: an output filename or '-' must be supplied when the PDF file is stdin.\0A\00", align 1
@.str.122 = private unnamed_addr constant [8 x i8] c"http://\00", align 1
@.str.123 = private unnamed_addr constant [9 x i8] c"https://\00", align 1
@.str.124 = private unnamed_addr constant [117 x i8] c"Error: an output filename or '-' must be supplied when the output format is PDF and input PDF file is a local file.\0A\00", align 1
@.str.125 = private unnamed_addr constant [33 x i8] c"Error: invalid output filename.\0A\00", align 1
@.str.126 = private unnamed_addr constant [5 x i8] c".pdf\00", align 1
@.str.127 = private unnamed_addr constant [4 x i8] c".ps\00", align 1
@.str.128 = private unnamed_addr constant [5 x i8] c".eps\00", align 1
@.str.129 = private unnamed_addr constant [5 x i8] c".svg\00", align 1
@.str.115 = private unnamed_addr constant [6 x i8] c"match\00", align 1
@.str.116 = private unnamed_addr constant [7 x i8] c"letter\00", align 1
@.str.117 = private unnamed_addr constant [6 x i8] c"legal\00", align 1
@.str.118 = private unnamed_addr constant [3 x i8] c"A4\00", align 1
@.str.119 = private unnamed_addr constant [3 x i8] c"A3\00", align 1
@.str.114 = private unnamed_addr constant [78 x i8] c"Error: %s may only be used with the -ps, -eps, -pdf, or -svg output options.\0A\00", align 1
@.str.113 = private unnamed_addr constant [75 x i8] c"Error: %s may only be used with the -png, -jpeg, or -tiff output options.\0A\00", align 1
@.str.41 = private unnamed_addr constant [5 x i8] c"-png\00", align 1
@.str.42 = private unnamed_addr constant [20 x i8] c"generate a PNG file\00", align 1
@.str.43 = private unnamed_addr constant [6 x i8] c"-jpeg\00", align 1
@.str.44 = private unnamed_addr constant [21 x i8] c"generate a JPEG file\00", align 1
@.str.45 = private unnamed_addr constant [4 x i8] c"-ps\00", align 1
@.str.46 = private unnamed_addr constant [25 x i8] c"generate PostScript file\00", align 1
@.str.47 = private unnamed_addr constant [5 x i8] c"-eps\00", align 1
@.str.48 = private unnamed_addr constant [39 x i8] c"generate Encapsulated PostScript (EPS)\00", align 1
@.str.49 = private unnamed_addr constant [5 x i8] c"-pdf\00", align 1
@.str.50 = private unnamed_addr constant [20 x i8] c"generate a PDF file\00", align 1
@.str.51 = private unnamed_addr constant [5 x i8] c"-svg\00", align 1
@.str.52 = private unnamed_addr constant [47 x i8] c"generate a Scalable Vector Graphics (SVG) file\00", align 1
@.str.53 = private unnamed_addr constant [3 x i8] c"-f\00", align 1
@.str.54 = private unnamed_addr constant [20 x i8] c"first page to print\00", align 1
@.str.55 = private unnamed_addr constant [3 x i8] c"-l\00", align 1
@.str.56 = private unnamed_addr constant [19 x i8] c"last page to print\00", align 1
@.str.57 = private unnamed_addr constant [3 x i8] c"-o\00", align 1
@.str.58 = private unnamed_addr constant [21 x i8] c"print only odd pages\00", align 1
@.str.59 = private unnamed_addr constant [3 x i8] c"-e\00", align 1
@.str.60 = private unnamed_addr constant [22 x i8] c"print only even pages\00", align 1
@.str.61 = private unnamed_addr constant [48 x i8] c"write only the first page and do not add digits\00", align 1
@.str.62 = private unnamed_addr constant [3 x i8] c"-r\00", align 1
@.str.63 = private unnamed_addr constant [36 x i8] c"resolution, in PPI (default is 150)\00", align 1
@.str.64 = private unnamed_addr constant [4 x i8] c"-rx\00", align 1
@.str.65 = private unnamed_addr constant [38 x i8] c"X resolution, in PPI (default is 150)\00", align 1
@.str.66 = private unnamed_addr constant [4 x i8] c"-ry\00", align 1
@.str.67 = private unnamed_addr constant [38 x i8] c"Y resolution, in PPI (default is 150)\00", align 1
@.str.68 = private unnamed_addr constant [10 x i8] c"-scale-to\00", align 1
@.str.69 = private unnamed_addr constant [59 x i8] c"scales each page to fit within scale-to*scale-to pixel box\00", align 1
@.str.70 = private unnamed_addr constant [12 x i8] c"-scale-to-x\00", align 1
@.str.71 = private unnamed_addr constant [58 x i8] c"scales each page horizontally to fit in scale-to-x pixels\00", align 1
@.str.72 = private unnamed_addr constant [12 x i8] c"-scale-to-y\00", align 1
@.str.73 = private unnamed_addr constant [56 x i8] c"scales each page vertically to fit in scale-to-y pixels\00", align 1
@.str.74 = private unnamed_addr constant [3 x i8] c"-x\00", align 1
@.str.75 = private unnamed_addr constant [46 x i8] c"x-coordinate of the crop area top left corner\00", align 1
@.str.76 = private unnamed_addr constant [3 x i8] c"-y\00", align 1
@.str.77 = private unnamed_addr constant [46 x i8] c"y-coordinate of the crop area top left corner\00", align 1
@.str.78 = private unnamed_addr constant [3 x i8] c"-W\00", align 1
@.str.79 = private unnamed_addr constant [44 x i8] c"width of crop area in pixels (default is 0)\00", align 1
@.str.80 = private unnamed_addr constant [3 x i8] c"-H\00", align 1
@.str.81 = private unnamed_addr constant [45 x i8] c"height of crop area in pixels (default is 0)\00", align 1
@.str.82 = private unnamed_addr constant [4 x i8] c"-sz\00", align 1
@.str.83 = private unnamed_addr constant [45 x i8] c"size of crop square in pixels (sets W and H)\00", align 1
@.str.84 = private unnamed_addr constant [9 x i8] c"-cropbox\00", align 1
@.str.85 = private unnamed_addr constant [39 x i8] c"use the crop box rather than media box\00", align 1
@.str.86 = private unnamed_addr constant [45 x i8] c"generate a monochrome image file (PNG, JPEG)\00", align 1
@.str.87 = private unnamed_addr constant [44 x i8] c"generate a grayscale image file (PNG, JPEG)\00", align 1
@.str.88 = private unnamed_addr constant [52 x i8] c"use a transparent background instead of white (PNG)\00", align 1
@.str.89 = private unnamed_addr constant [38 x i8] c"generate Level 2 PostScript (PS, EPS)\00", align 1
@.str.90 = private unnamed_addr constant [38 x i8] c"generate Level 3 PostScript (PS, EPS)\00", align 1
@.str.91 = private unnamed_addr constant [44 x i8] c"conserve original page sizes (PS, PDF, SVG)\00", align 1
@.str.92 = private unnamed_addr constant [42 x i8] c"paper size (letter, legal, A4, A3, match)\00", align 1
@.str.93 = private unnamed_addr constant [23 x i8] c"paper width, in points\00", align 1
@.str.94 = private unnamed_addr constant [24 x i8] c"paper height, in points\00", align 1
@.str.95 = private unnamed_addr constant [28 x i8] c"don't crop pages to CropBox\00", align 1
@.str.96 = private unnamed_addr constant [41 x i8] c"expand pages smaller than the paper size\00", align 1
@.str.97 = private unnamed_addr constant [46 x i8] c"don't shrink pages larger than the paper size\00", align 1
@.str.98 = private unnamed_addr constant [47 x i8] c"don't center pages smaller than the paper size\00", align 1
@.str.99 = private unnamed_addr constant [23 x i8] c"enable duplex printing\00", align 1
@.str.100 = private unnamed_addr constant [5 x i8] c"-opw\00", align 1
@.str.101 = private unnamed_addr constant [37 x i8] c"owner password (for encrypted files)\00", align 1
@.str.102 = private unnamed_addr constant [5 x i8] c"-upw\00", align 1
@.str.103 = private unnamed_addr constant [36 x i8] c"user password (for encrypted files)\00", align 1
@.str.104 = private unnamed_addr constant [3 x i8] c"-q\00", align 1
@.str.105 = private unnamed_addr constant [35 x i8] c"don't print any messages or errors\00", align 1
@.str.106 = private unnamed_addr constant [3 x i8] c"-v\00", align 1
@.str.107 = private unnamed_addr constant [33 x i8] c"print copyright and version info\00", align 1
@.str.108 = private unnamed_addr constant [3 x i8] c"-h\00", align 1
@.str.109 = private unnamed_addr constant [24 x i8] c"print usage information\00", align 1
@.str.110 = private unnamed_addr constant [6 x i8] c"-help\00", align 1
@.str.111 = private unnamed_addr constant [7 x i8] c"--help\00", align 1
@.str.112 = private unnamed_addr constant [3 x i8] c"-?\00", align 1
@.str.139 = private unnamed_addr constant [3 x i8] c"--\00", align 1
@.str.11.140 = private unnamed_addr constant [29 x i8] c"Internal error in arg table\0A\00", align 1
@.str.1.143 = private unnamed_addr constant [20 x i8] c"Usage: %s [options]\00", align 1
@.str.2.144 = private unnamed_addr constant [4 x i8] c" %s\00", align 1
@.str.3.145 = private unnamed_addr constant [2 x i8] c"\0A\00", align 1
@.str.4.146 = private unnamed_addr constant [5 x i8] c"  %s\00", align 1
@.str.5.147 = private unnamed_addr constant [7 x i8] c" <int>\00", align 1
@.str.6.148 = private unnamed_addr constant [6 x i8] c" <fp>\00", align 1
@.str.7.149 = private unnamed_addr constant [10 x i8] c" <string>\00", align 1
@.str.8.150 = private unnamed_addr constant [1 x i8] zeroinitializer, align 1
@.str.9.151 = private unnamed_addr constant [5 x i8] c"%-*s\00", align 1
@.str.10.152 = private unnamed_addr constant [5 x i8] c": %s\00", align 1
@specialMalloc = external thread_local global i8, align 1

; Function Attrs: noinline nounwind uwtable
define internal void @_GLOBAL__sub_I_pdftocairo.cc() #0 section ".text.startup" !dbg !1880 {
  call void @__cxx_global_var_init(), !dbg !1883
  ret void
}

; Function Attrs: noinline nounwind uwtable
define internal void @__cxx_global_var_init() #0 section ".text.startup" !dbg !1884 {
  call void @_ZN9GooStringC1Ev(%class.GooString* @_ZL3icc), !dbg !1885
  %1 = call i32 @__cxa_atexit(void (i8*)* bitcast (void (%class.GooString*)* @_ZN9GooStringD1Ev to void (i8*)*), i8* getelementptr inbounds (%class.GooString, %class.GooString* @_ZL3icc, i32 0, i32 0, i32 0), i8* @__dso_handle) #2, !dbg !1885
  ret void, !dbg !1885
}

declare void @_ZN9GooStringC1Ev(%class.GooString*) unnamed_addr #1

declare void @_ZN9GooStringD1Ev(%class.GooString*) unnamed_addr #1

; Function Attrs: nounwind
declare i32 @__cxa_atexit(void (i8*)*, i8*, i8*) #2

; Function Attrs: noinline nounwind optnone uwtable
define dso_local void @_Z14writePageImageP9GooString(%class.GooString*) #3 !dbg !1886 {
  %2 = alloca %class.GooString*, align 8
  %3 = alloca %class.ImgWriter*, align 8
  %4 = alloca %struct._IO_FILE*, align 8
  %5 = alloca i32, align 4
  %6 = alloca i32, align 4
  %7 = alloca i32, align 4
  %8 = alloca i8*, align 8
  %9 = alloca i8*, align 8
  %10 = alloca i32, align 4
  %11 = alloca i32*, align 8
  %12 = alloca i8*, align 8
  %13 = alloca i32, align 4
  %14 = alloca i32, align 4
  %15 = alloca i8, align 1
  %16 = alloca i32, align 4
  %17 = alloca i32, align 4
  %18 = alloca i32, align 4
  %19 = alloca i32, align 4
  store %class.GooString* %0, %class.GooString** %2, align 8
  call void @llvm.dbg.declare(metadata %class.GooString** %2, metadata !1889, metadata !DIExpression()), !dbg !1890
  call void @llvm.dbg.declare(metadata %class.ImgWriter** %3, metadata !1891, metadata !DIExpression()), !dbg !1895
  store %class.ImgWriter* null, %class.ImgWriter** %3, align 8, !dbg !1895
  call void @llvm.dbg.declare(metadata %struct._IO_FILE** %4, metadata !1896, metadata !DIExpression()), !dbg !1897
  call void @llvm.dbg.declare(metadata i32* %5, metadata !1898, metadata !DIExpression()), !dbg !1899
  call void @llvm.dbg.declare(metadata i32* %6, metadata !1900, metadata !DIExpression()), !dbg !1901
  call void @llvm.dbg.declare(metadata i32* %7, metadata !1902, metadata !DIExpression()), !dbg !1903
  call void @llvm.dbg.declare(metadata i8** %8, metadata !1904, metadata !DIExpression()), !dbg !1905
  %20 = load i8, i8* @_ZL3png, align 1, !dbg !1906
  %21 = trunc i8 %20 to i1, !dbg !1906
  br i1 %21, label %22, label %50, !dbg !1908

; <label>:22:                                     ; preds = %1
  %23 = load i8, i8* @_ZL6transp, align 1, !dbg !1909
  %24 = trunc i8 %23 to i1, !dbg !1909
  br i1 %24, label %25, label %29, !dbg !1912

; <label>:25:                                     ; preds = %22
  %26 = call i8* @_Znwm(i64 16) #11, !dbg !1913
  %27 = bitcast i8* %26 to %class.PNGWriter*, !dbg !1913
  call void @_ZN9PNGWriterC1ENS_6FormatE(%class.PNGWriter* %27, i32 1), !dbg !1914
  %28 = bitcast %class.PNGWriter* %27 to %class.ImgWriter*, !dbg !1913
  store %class.ImgWriter* %28, %class.ImgWriter** %3, align 8, !dbg !1915
  br label %49, !dbg !1916

; <label>:29:                                     ; preds = %22
  %30 = load i8, i8* @_ZL4gray, align 1, !dbg !1917
  %31 = trunc i8 %30 to i1, !dbg !1917
  br i1 %31, label %32, label %36, !dbg !1919

; <label>:32:                                     ; preds = %29
  %33 = call i8* @_Znwm(i64 16) #11, !dbg !1920
  %34 = bitcast i8* %33 to %class.PNGWriter*, !dbg !1920
  call void @_ZN9PNGWriterC1ENS_6FormatE(%class.PNGWriter* %34, i32 2), !dbg !1921
  %35 = bitcast %class.PNGWriter* %34 to %class.ImgWriter*, !dbg !1920
  store %class.ImgWriter* %35, %class.ImgWriter** %3, align 8, !dbg !1922
  br label %48, !dbg !1923

; <label>:36:                                     ; preds = %29
  %37 = load i8, i8* @_ZL4mono, align 1, !dbg !1924
  %38 = trunc i8 %37 to i1, !dbg !1924
  br i1 %38, label %39, label %43, !dbg !1926

; <label>:39:                                     ; preds = %36
  %40 = call i8* @_Znwm(i64 16) #11, !dbg !1927
  %41 = bitcast i8* %40 to %class.PNGWriter*, !dbg !1927
  call void @_ZN9PNGWriterC1ENS_6FormatE(%class.PNGWriter* %41, i32 3), !dbg !1928
  %42 = bitcast %class.PNGWriter* %41 to %class.ImgWriter*, !dbg !1927
  store %class.ImgWriter* %42, %class.ImgWriter** %3, align 8, !dbg !1929
  br label %47, !dbg !1930

; <label>:43:                                     ; preds = %36
  %44 = call i8* @_Znwm(i64 16) #11, !dbg !1931
  %45 = bitcast i8* %44 to %class.PNGWriter*, !dbg !1931
  call void @_ZN9PNGWriterC1ENS_6FormatE(%class.PNGWriter* %45, i32 0), !dbg !1932
  %46 = bitcast %class.PNGWriter* %45 to %class.ImgWriter*, !dbg !1931
  store %class.ImgWriter* %46, %class.ImgWriter** %3, align 8, !dbg !1933
  br label %47

; <label>:47:                                     ; preds = %43, %39
  br label %48

; <label>:48:                                     ; preds = %47, %32
  br label %49

; <label>:49:                                     ; preds = %48, %25
  br label %71, !dbg !1934

; <label>:50:                                     ; preds = %1
  %51 = load i8, i8* @_ZL4jpeg, align 1, !dbg !1935
  %52 = trunc i8 %51 to i1, !dbg !1935
  br i1 %52, label %53, label %65, !dbg !1937

; <label>:53:                                     ; preds = %50
  %54 = load i8, i8* @_ZL4gray, align 1, !dbg !1938
  %55 = trunc i8 %54 to i1, !dbg !1938
  br i1 %55, label %56, label %60, !dbg !1941

; <label>:56:                                     ; preds = %53
  %57 = call i8* @_Znwm(i64 16) #11, !dbg !1942
  %58 = bitcast i8* %57 to %class.JpegWriter*, !dbg !1942
  call void @_ZN10JpegWriterC1ENS_6FormatE(%class.JpegWriter* %58, i32 1), !dbg !1943
  %59 = bitcast %class.JpegWriter* %58 to %class.ImgWriter*, !dbg !1942
  store %class.ImgWriter* %59, %class.ImgWriter** %3, align 8, !dbg !1944
  br label %64, !dbg !1945

; <label>:60:                                     ; preds = %53
  %61 = call i8* @_Znwm(i64 16) #11, !dbg !1946
  %62 = bitcast i8* %61 to %class.JpegWriter*, !dbg !1946
  call void @_ZN10JpegWriterC1ENS_6FormatE(%class.JpegWriter* %62, i32 0), !dbg !1947
  %63 = bitcast %class.JpegWriter* %62 to %class.ImgWriter*, !dbg !1946
  store %class.ImgWriter* %63, %class.ImgWriter** %3, align 8, !dbg !1948
  br label %64

; <label>:64:                                     ; preds = %60, %56
  br label %70, !dbg !1949

; <label>:65:                                     ; preds = %50
  %66 = load i8, i8* @_ZL4tiff, align 1, !dbg !1950
  %67 = trunc i8 %66 to i1, !dbg !1950
  br i1 %67, label %68, label %69, !dbg !1952

; <label>:68:                                     ; preds = %65
  br label %69, !dbg !1953

; <label>:69:                                     ; preds = %68, %65
  br label %70

; <label>:70:                                     ; preds = %69, %64
  br label %71

; <label>:71:                                     ; preds = %70, %49
  %72 = load %class.ImgWriter*, %class.ImgWriter** %3, align 8, !dbg !1955
  %73 = icmp ne %class.ImgWriter* %72, null, !dbg !1955
  br i1 %73, label %75, label %74, !dbg !1957

; <label>:74:                                     ; preds = %71
  br label %371, !dbg !1958

; <label>:75:                                     ; preds = %71
  %76 = load %class.GooString*, %class.GooString** %2, align 8, !dbg !1959
  %77 = call i32 @_ZNK9GooString3cmpEPKc(%class.GooString* %76, i8* getelementptr inbounds ([7 x i8], [7 x i8]* @.str, i32 0, i32 0)), !dbg !1961
  %78 = icmp eq i32 %77, 0, !dbg !1962
  br i1 %78, label %79, label %81, !dbg !1963

; <label>:79:                                     ; preds = %75
  %80 = load %struct._IO_FILE*, %struct._IO_FILE** @stdout, align 8, !dbg !1964
  store %struct._IO_FILE* %80, %struct._IO_FILE** %4, align 8, !dbg !1965
  br label %85, !dbg !1966

; <label>:81:                                     ; preds = %75
  %82 = load %class.GooString*, %class.GooString** %2, align 8, !dbg !1967
  %83 = call i8* @_ZNK9GooString10getCStringEv(%class.GooString* %82), !dbg !1968
  %84 = call %struct._IO_FILE* @fopen(i8* %83, i8* getelementptr inbounds ([3 x i8], [3 x i8]* @.str.1, i32 0, i32 0)), !dbg !1969
  store %struct._IO_FILE* %84, %struct._IO_FILE** %4, align 8, !dbg !1970
  br label %85

; <label>:85:                                     ; preds = %81, %79
  %86 = load %struct._IO_FILE*, %struct._IO_FILE** %4, align 8, !dbg !1971
  %87 = icmp ne %struct._IO_FILE* %86, null, !dbg !1971
  br i1 %87, label %93, label %88, !dbg !1973

; <label>:88:                                     ; preds = %85
  %89 = load %struct._IO_FILE*, %struct._IO_FILE** @stderr, align 8, !dbg !1974
  %90 = load %class.GooString*, %class.GooString** %2, align 8, !dbg !1976
  %91 = call i8* @_ZNK9GooString10getCStringEv(%class.GooString* %90), !dbg !1977
  %92 = call i32 (%struct._IO_FILE*, i8*, ...) @fprintf(%struct._IO_FILE* %89, i8* getelementptr inbounds ([30 x i8], [30 x i8]* @.str.2, i32 0, i32 0), i8* %91), !dbg !1978
  call void @exit(i32 2) #12, !dbg !1979
  unreachable, !dbg !1979

; <label>:93:                                     ; preds = %85
  %94 = load %struct._cairo_surface*, %struct._cairo_surface** @_ZL7surface, align 8, !dbg !1980
  %95 = call i32 @cairo_image_surface_get_height(%struct._cairo_surface* %94), !dbg !1981
  store i32 %95, i32* %5, align 4, !dbg !1982
  %96 = load %struct._cairo_surface*, %struct._cairo_surface** @_ZL7surface, align 8, !dbg !1983
  %97 = call i32 @cairo_image_surface_get_width(%struct._cairo_surface* %96), !dbg !1984
  store i32 %97, i32* %6, align 4, !dbg !1985
  %98 = load %struct._cairo_surface*, %struct._cairo_surface** @_ZL7surface, align 8, !dbg !1986
  %99 = call i32 @cairo_image_surface_get_stride(%struct._cairo_surface* %98), !dbg !1987
  store i32 %99, i32* %7, align 4, !dbg !1988
  %100 = load %struct._cairo_surface*, %struct._cairo_surface** @_ZL7surface, align 8, !dbg !1989
  %101 = call i8* @cairo_image_surface_get_data(%struct._cairo_surface* %100), !dbg !1990
  store i8* %101, i8** %8, align 8, !dbg !1991
  %102 = load %class.ImgWriter*, %class.ImgWriter** %3, align 8, !dbg !1992
  %103 = load %struct._IO_FILE*, %struct._IO_FILE** %4, align 8, !dbg !1994
  %104 = load i32, i32* %6, align 4, !dbg !1995
  %105 = load i32, i32* %5, align 4, !dbg !1996
  %106 = load double, double* @_ZL12x_resolution, align 8, !dbg !1997
  %107 = fptosi double %106 to i32, !dbg !1997
  %108 = load double, double* @_ZL12y_resolution, align 8, !dbg !1998
  %109 = fptosi double %108 to i32, !dbg !1998
  %110 = bitcast %class.ImgWriter* %102 to i1 (%class.ImgWriter*, %struct._IO_FILE*, i32, i32, i32, i32)***, !dbg !1999
  %111 = load i1 (%class.ImgWriter*, %struct._IO_FILE*, i32, i32, i32, i32)**, i1 (%class.ImgWriter*, %struct._IO_FILE*, i32, i32, i32, i32)*** %110, align 8, !dbg !1999
  %112 = getelementptr inbounds i1 (%class.ImgWriter*, %struct._IO_FILE*, i32, i32, i32, i32)*, i1 (%class.ImgWriter*, %struct._IO_FILE*, i32, i32, i32, i32)** %111, i64 2, !dbg !1999
  %113 = load i1 (%class.ImgWriter*, %struct._IO_FILE*, i32, i32, i32, i32)*, i1 (%class.ImgWriter*, %struct._IO_FILE*, i32, i32, i32, i32)** %112, align 8, !dbg !1999
  %114 = call zeroext i1 %113(%class.ImgWriter* %102, %struct._IO_FILE* %103, i32 %104, i32 %105, i32 %107, i32 %109), !dbg !1999
  br i1 %114, label %120, label %115, !dbg !2000

; <label>:115:                                    ; preds = %93
  %116 = load %struct._IO_FILE*, %struct._IO_FILE** @stderr, align 8, !dbg !2001
  %117 = load %class.GooString*, %class.GooString** %2, align 8, !dbg !2003
  %118 = call i8* @_ZNK9GooString10getCStringEv(%class.GooString* %117), !dbg !2004
  %119 = call i32 (%struct._IO_FILE*, i8*, ...) @fprintf(%struct._IO_FILE* %116, i8* getelementptr inbounds ([18 x i8], [18 x i8]* @.str.3, i32 0, i32 0), i8* %118), !dbg !2005
  call void @exit(i32 2) #12, !dbg !2006
  unreachable, !dbg !2006

; <label>:120:                                    ; preds = %93
  call void @llvm.dbg.declare(metadata i8** %9, metadata !2007, metadata !DIExpression()), !dbg !2008
  %121 = load i32, i32* %6, align 4, !dbg !2009
  %122 = call i8* @gmallocn(i32 %121, i32 4), !dbg !2010
  store i8* %122, i8** %9, align 8, !dbg !2008
  call void @llvm.dbg.declare(metadata i32* %10, metadata !2011, metadata !DIExpression()), !dbg !2013
  store i32 0, i32* %10, align 4, !dbg !2013
  br label %123, !dbg !2014

; <label>:123:                                    ; preds = %343, %120
  %124 = load i32, i32* %10, align 4, !dbg !2015
  %125 = load i32, i32* %5, align 4, !dbg !2017
  %126 = icmp slt i32 %124, %125, !dbg !2018
  br i1 %126, label %127, label %346, !dbg !2019

; <label>:127:                                    ; preds = %123
  call void @llvm.dbg.declare(metadata i32** %11, metadata !2020, metadata !DIExpression()), !dbg !2022
  %128 = load i8*, i8** %8, align 8, !dbg !2023
  %129 = load i32, i32* %10, align 4, !dbg !2024
  %130 = load i32, i32* %7, align 4, !dbg !2025
  %131 = mul nsw i32 %129, %130, !dbg !2026
  %132 = sext i32 %131 to i64, !dbg !2027
  %133 = getelementptr inbounds i8, i8* %128, i64 %132, !dbg !2027
  %134 = bitcast i8* %133 to i32*, !dbg !2028
  store i32* %134, i32** %11, align 8, !dbg !2022
  call void @llvm.dbg.declare(metadata i8** %12, metadata !2029, metadata !DIExpression()), !dbg !2030
  %135 = load i8*, i8** %9, align 8, !dbg !2031
  store i8* %135, i8** %12, align 8, !dbg !2030
  call void @llvm.dbg.declare(metadata i32* %13, metadata !2032, metadata !DIExpression()), !dbg !2033
  store i32 7, i32* %13, align 4, !dbg !2033
  call void @llvm.dbg.declare(metadata i32* %14, metadata !2034, metadata !DIExpression()), !dbg !2036
  store i32 0, i32* %14, align 4, !dbg !2036
  br label %136, !dbg !2037

; <label>:136:                                    ; preds = %331, %127
  %137 = load i32, i32* %14, align 4, !dbg !2038
  %138 = load i32, i32* %6, align 4, !dbg !2040
  %139 = icmp slt i32 %137, %138, !dbg !2041
  br i1 %139, label %140, label %336, !dbg !2042

; <label>:140:                                    ; preds = %136
  %141 = load i8, i8* @_ZL6transp, align 1, !dbg !2043
  %142 = trunc i8 %141 to i1, !dbg !2043
  br i1 %142, label %143, label %242, !dbg !2046

; <label>:143:                                    ; preds = %140
  %144 = load i8, i8* @_ZL4tiff, align 1, !dbg !2047
  %145 = trunc i8 %144 to i1, !dbg !2047
  br i1 %145, label %146, label %175, !dbg !2050

; <label>:146:                                    ; preds = %143
  %147 = load i32*, i32** %11, align 8, !dbg !2051
  %148 = load i32, i32* %147, align 4, !dbg !2053
  %149 = and i32 %148, 16711680, !dbg !2054
  %150 = lshr i32 %149, 16, !dbg !2055
  %151 = trunc i32 %150 to i8, !dbg !2056
  %152 = load i8*, i8** %12, align 8, !dbg !2057
  %153 = getelementptr inbounds i8, i8* %152, i32 1, !dbg !2057
  store i8* %153, i8** %12, align 8, !dbg !2057
  store i8 %151, i8* %152, align 1, !dbg !2058
  %154 = load i32*, i32** %11, align 8, !dbg !2059
  %155 = load i32, i32* %154, align 4, !dbg !2060
  %156 = and i32 %155, 65280, !dbg !2061
  %157 = lshr i32 %156, 8, !dbg !2062
  %158 = trunc i32 %157 to i8, !dbg !2063
  %159 = load i8*, i8** %12, align 8, !dbg !2064
  %160 = getelementptr inbounds i8, i8* %159, i32 1, !dbg !2064
  store i8* %160, i8** %12, align 8, !dbg !2064
  store i8 %158, i8* %159, align 1, !dbg !2065
  %161 = load i32*, i32** %11, align 8, !dbg !2066
  %162 = load i32, i32* %161, align 4, !dbg !2067
  %163 = and i32 %162, 255, !dbg !2068
  %164 = lshr i32 %163, 0, !dbg !2069
  %165 = trunc i32 %164 to i8, !dbg !2070
  %166 = load i8*, i8** %12, align 8, !dbg !2071
  %167 = getelementptr inbounds i8, i8* %166, i32 1, !dbg !2071
  store i8* %167, i8** %12, align 8, !dbg !2071
  store i8 %165, i8* %166, align 1, !dbg !2072
  %168 = load i32*, i32** %11, align 8, !dbg !2073
  %169 = load i32, i32* %168, align 4, !dbg !2074
  %170 = and i32 %169, -16777216, !dbg !2075
  %171 = lshr i32 %170, 24, !dbg !2076
  %172 = trunc i32 %171 to i8, !dbg !2077
  %173 = load i8*, i8** %12, align 8, !dbg !2078
  %174 = getelementptr inbounds i8, i8* %173, i32 1, !dbg !2078
  store i8* %174, i8** %12, align 8, !dbg !2078
  store i8 %172, i8* %173, align 1, !dbg !2079
  br label %241, !dbg !2080

; <label>:175:                                    ; preds = %143
  call void @llvm.dbg.declare(metadata i8* %15, metadata !2081, metadata !DIExpression()), !dbg !2084
  %176 = load i32*, i32** %11, align 8, !dbg !2085
  %177 = load i32, i32* %176, align 4, !dbg !2086
  %178 = and i32 %177, -16777216, !dbg !2087
  %179 = lshr i32 %178, 24, !dbg !2088
  %180 = trunc i32 %179 to i8, !dbg !2089
  store i8 %180, i8* %15, align 1, !dbg !2090
  %181 = load i8, i8* %15, align 1, !dbg !2091
  %182 = zext i8 %181 to i32, !dbg !2091
  %183 = icmp eq i32 %182, 0, !dbg !2093
  br i1 %183, label %184, label %191, !dbg !2094

; <label>:184:                                    ; preds = %175
  %185 = load i8*, i8** %12, align 8, !dbg !2095
  %186 = getelementptr inbounds i8, i8* %185, i32 1, !dbg !2095
  store i8* %186, i8** %12, align 8, !dbg !2095
  store i8 0, i8* %185, align 1, !dbg !2097
  %187 = load i8*, i8** %12, align 8, !dbg !2098
  %188 = getelementptr inbounds i8, i8* %187, i32 1, !dbg !2098
  store i8* %188, i8** %12, align 8, !dbg !2098
  store i8 0, i8* %187, align 1, !dbg !2099
  %189 = load i8*, i8** %12, align 8, !dbg !2100
  %190 = getelementptr inbounds i8, i8* %189, i32 1, !dbg !2100
  store i8* %190, i8** %12, align 8, !dbg !2100
  store i8 0, i8* %189, align 1, !dbg !2101
  br label %237, !dbg !2102

; <label>:191:                                    ; preds = %175
  %192 = load i32*, i32** %11, align 8, !dbg !2103
  %193 = load i32, i32* %192, align 4, !dbg !2105
  %194 = and i32 %193, 16711680, !dbg !2106
  %195 = lshr i32 %194, 16, !dbg !2107
  %196 = mul i32 %195, 255, !dbg !2108
  %197 = load i8, i8* %15, align 1, !dbg !2109
  %198 = zext i8 %197 to i32, !dbg !2109
  %199 = sdiv i32 %198, 2, !dbg !2110
  %200 = add i32 %196, %199, !dbg !2111
  %201 = load i8, i8* %15, align 1, !dbg !2112
  %202 = zext i8 %201 to i32, !dbg !2112
  %203 = udiv i32 %200, %202, !dbg !2113
  %204 = trunc i32 %203 to i8, !dbg !2114
  %205 = load i8*, i8** %12, align 8, !dbg !2115
  %206 = getelementptr inbounds i8, i8* %205, i32 1, !dbg !2115
  store i8* %206, i8** %12, align 8, !dbg !2115
  store i8 %204, i8* %205, align 1, !dbg !2116
  %207 = load i32*, i32** %11, align 8, !dbg !2117
  %208 = load i32, i32* %207, align 4, !dbg !2118
  %209 = and i32 %208, 65280, !dbg !2119
  %210 = lshr i32 %209, 8, !dbg !2120
  %211 = mul i32 %210, 255, !dbg !2121
  %212 = load i8, i8* %15, align 1, !dbg !2122
  %213 = zext i8 %212 to i32, !dbg !2122
  %214 = sdiv i32 %213, 2, !dbg !2123
  %215 = add i32 %211, %214, !dbg !2124
  %216 = load i8, i8* %15, align 1, !dbg !2125
  %217 = zext i8 %216 to i32, !dbg !2125
  %218 = udiv i32 %215, %217, !dbg !2126
  %219 = trunc i32 %218 to i8, !dbg !2127
  %220 = load i8*, i8** %12, align 8, !dbg !2128
  %221 = getelementptr inbounds i8, i8* %220, i32 1, !dbg !2128
  store i8* %221, i8** %12, align 8, !dbg !2128
  store i8 %219, i8* %220, align 1, !dbg !2129
  %222 = load i32*, i32** %11, align 8, !dbg !2130
  %223 = load i32, i32* %222, align 4, !dbg !2131
  %224 = and i32 %223, 255, !dbg !2132
  %225 = lshr i32 %224, 0, !dbg !2133
  %226 = mul i32 %225, 255, !dbg !2134
  %227 = load i8, i8* %15, align 1, !dbg !2135
  %228 = zext i8 %227 to i32, !dbg !2135
  %229 = sdiv i32 %228, 2, !dbg !2136
  %230 = add i32 %226, %229, !dbg !2137
  %231 = load i8, i8* %15, align 1, !dbg !2138
  %232 = zext i8 %231 to i32, !dbg !2138
  %233 = udiv i32 %230, %232, !dbg !2139
  %234 = trunc i32 %233 to i8, !dbg !2140
  %235 = load i8*, i8** %12, align 8, !dbg !2141
  %236 = getelementptr inbounds i8, i8* %235, i32 1, !dbg !2141
  store i8* %236, i8** %12, align 8, !dbg !2141
  store i8 %234, i8* %235, align 1, !dbg !2142
  br label %237

; <label>:237:                                    ; preds = %191, %184
  %238 = load i8, i8* %15, align 1, !dbg !2143
  %239 = load i8*, i8** %12, align 8, !dbg !2144
  %240 = getelementptr inbounds i8, i8* %239, i32 1, !dbg !2144
  store i8* %240, i8** %12, align 8, !dbg !2144
  store i8 %238, i8* %239, align 1, !dbg !2145
  br label %241

; <label>:241:                                    ; preds = %237, %146
  br label %330, !dbg !2146

; <label>:242:                                    ; preds = %140
  %243 = load i8, i8* @_ZL4gray, align 1, !dbg !2147
  %244 = trunc i8 %243 to i1, !dbg !2147
  br i1 %244, label %248, label %245, !dbg !2149

; <label>:245:                                    ; preds = %242
  %246 = load i8, i8* @_ZL4mono, align 1, !dbg !2150
  %247 = trunc i8 %246 to i1, !dbg !2150
  br i1 %247, label %248, label %307, !dbg !2151

; <label>:248:                                    ; preds = %245, %242
  call void @llvm.dbg.declare(metadata i32* %16, metadata !2152, metadata !DIExpression()), !dbg !2154
  %249 = load i32*, i32** %11, align 8, !dbg !2155
  %250 = load i32, i32* %249, align 4, !dbg !2156
  %251 = and i32 %250, 16711680, !dbg !2157
  %252 = lshr i32 %251, 16, !dbg !2158
  store i32 %252, i32* %16, align 4, !dbg !2154
  call void @llvm.dbg.declare(metadata i32* %17, metadata !2159, metadata !DIExpression()), !dbg !2160
  %253 = load i32*, i32** %11, align 8, !dbg !2161
  %254 = load i32, i32* %253, align 4, !dbg !2162
  %255 = and i32 %254, 65280, !dbg !2163
  %256 = lshr i32 %255, 8, !dbg !2164
  store i32 %256, i32* %17, align 4, !dbg !2160
  call void @llvm.dbg.declare(metadata i32* %18, metadata !2165, metadata !DIExpression()), !dbg !2166
  %257 = load i32*, i32** %11, align 8, !dbg !2167
  %258 = load i32, i32* %257, align 4, !dbg !2168
  %259 = and i32 %258, 255, !dbg !2169
  %260 = lshr i32 %259, 0, !dbg !2170
  store i32 %260, i32* %18, align 4, !dbg !2166
  call void @llvm.dbg.declare(metadata i32* %19, metadata !2171, metadata !DIExpression()), !dbg !2172
  %261 = load i32, i32* %16, align 4, !dbg !2173
  %262 = mul nsw i32 %261, 19661, !dbg !2174
  %263 = load i32, i32* %17, align 4, !dbg !2175
  %264 = mul nsw i32 %263, 38666, !dbg !2176
  %265 = add nsw i32 %262, %264, !dbg !2177
  %266 = load i32, i32* %18, align 4, !dbg !2178
  %267 = mul nsw i32 %266, 7209, !dbg !2179
  %268 = add nsw i32 %265, %267, !dbg !2180
  %269 = add nsw i32 %268, 32829, !dbg !2181
  %270 = ashr i32 %269, 16, !dbg !2182
  store i32 %270, i32* %19, align 4, !dbg !2172
  %271 = load i8, i8* @_ZL4tiff, align 1, !dbg !2183
  %272 = trunc i8 %271 to i1, !dbg !2183
  br i1 %272, label %273, label %301, !dbg !2185

; <label>:273:                                    ; preds = %248
  %274 = load i8, i8* @_ZL4mono, align 1, !dbg !2186
  %275 = trunc i8 %274 to i1, !dbg !2186
  br i1 %275, label %276, label %301, !dbg !2187

; <label>:276:                                    ; preds = %273
  %277 = load i32, i32* %13, align 4, !dbg !2188
  %278 = icmp eq i32 %277, 7, !dbg !2191
  br i1 %278, label %279, label %281, !dbg !2192

; <label>:279:                                    ; preds = %276
  %280 = load i8*, i8** %12, align 8, !dbg !2193
  store i8 0, i8* %280, align 1, !dbg !2194
  br label %281, !dbg !2195

; <label>:281:                                    ; preds = %279, %276
  %282 = load i32, i32* %19, align 4, !dbg !2196
  %283 = icmp sgt i32 %282, 127, !dbg !2198
  br i1 %283, label %284, label %292, !dbg !2199

; <label>:284:                                    ; preds = %281
  %285 = load i32, i32* %13, align 4, !dbg !2200
  %286 = shl i32 1, %285, !dbg !2201
  %287 = load i8*, i8** %12, align 8, !dbg !2202
  %288 = load i8, i8* %287, align 1, !dbg !2203
  %289 = zext i8 %288 to i32, !dbg !2203
  %290 = or i32 %289, %286, !dbg !2203
  %291 = trunc i32 %290 to i8, !dbg !2203
  store i8 %291, i8* %287, align 1, !dbg !2203
  br label %292, !dbg !2204

; <label>:292:                                    ; preds = %284, %281
  %293 = load i32, i32* %13, align 4, !dbg !2205
  %294 = add nsw i32 %293, -1, !dbg !2205
  store i32 %294, i32* %13, align 4, !dbg !2205
  %295 = load i32, i32* %13, align 4, !dbg !2206
  %296 = icmp slt i32 %295, 0, !dbg !2208
  br i1 %296, label %297, label %300, !dbg !2209

; <label>:297:                                    ; preds = %292
  store i32 7, i32* %13, align 4, !dbg !2210
  %298 = load i8*, i8** %12, align 8, !dbg !2212
  %299 = getelementptr inbounds i8, i8* %298, i32 1, !dbg !2212
  store i8* %299, i8** %12, align 8, !dbg !2212
  br label %300, !dbg !2213

; <label>:300:                                    ; preds = %297, %292
  br label %306, !dbg !2214

; <label>:301:                                    ; preds = %273, %248
  %302 = load i32, i32* %19, align 4, !dbg !2215
  %303 = trunc i32 %302 to i8, !dbg !2215
  %304 = load i8*, i8** %12, align 8, !dbg !2217
  %305 = getelementptr inbounds i8, i8* %304, i32 1, !dbg !2217
  store i8* %305, i8** %12, align 8, !dbg !2217
  store i8 %303, i8* %304, align 1, !dbg !2218
  br label %306

; <label>:306:                                    ; preds = %301, %300
  br label %329, !dbg !2219

; <label>:307:                                    ; preds = %245
  %308 = load i32*, i32** %11, align 8, !dbg !2220
  %309 = load i32, i32* %308, align 4, !dbg !2222
  %310 = and i32 %309, 16711680, !dbg !2223
  %311 = lshr i32 %310, 16, !dbg !2224
  %312 = trunc i32 %311 to i8, !dbg !2225
  %313 = load i8*, i8** %12, align 8, !dbg !2226
  %314 = getelementptr inbounds i8, i8* %313, i32 1, !dbg !2226
  store i8* %314, i8** %12, align 8, !dbg !2226
  store i8 %312, i8* %313, align 1, !dbg !2227
  %315 = load i32*, i32** %11, align 8, !dbg !2228
  %316 = load i32, i32* %315, align 4, !dbg !2229
  %317 = and i32 %316, 65280, !dbg !2230
  %318 = lshr i32 %317, 8, !dbg !2231
  %319 = trunc i32 %318 to i8, !dbg !2232
  %320 = load i8*, i8** %12, align 8, !dbg !2233
  %321 = getelementptr inbounds i8, i8* %320, i32 1, !dbg !2233
  store i8* %321, i8** %12, align 8, !dbg !2233
  store i8 %319, i8* %320, align 1, !dbg !2234
  %322 = load i32*, i32** %11, align 8, !dbg !2235
  %323 = load i32, i32* %322, align 4, !dbg !2236
  %324 = and i32 %323, 255, !dbg !2237
  %325 = lshr i32 %324, 0, !dbg !2238
  %326 = trunc i32 %325 to i8, !dbg !2239
  %327 = load i8*, i8** %12, align 8, !dbg !2240
  %328 = getelementptr inbounds i8, i8* %327, i32 1, !dbg !2240
  store i8* %328, i8** %12, align 8, !dbg !2240
  store i8 %326, i8* %327, align 1, !dbg !2241
  br label %329

; <label>:329:                                    ; preds = %307, %306
  br label %330

; <label>:330:                                    ; preds = %329, %241
  br label %331, !dbg !2242

; <label>:331:                                    ; preds = %330
  %332 = load i32, i32* %14, align 4, !dbg !2243
  %333 = add nsw i32 %332, 1, !dbg !2243
  store i32 %333, i32* %14, align 4, !dbg !2243
  %334 = load i32*, i32** %11, align 8, !dbg !2244
  %335 = getelementptr inbounds i32, i32* %334, i32 1, !dbg !2244
  store i32* %335, i32** %11, align 8, !dbg !2244
  br label %136, !dbg !2245, !llvm.loop !2246

; <label>:336:                                    ; preds = %136
  %337 = load %class.ImgWriter*, %class.ImgWriter** %3, align 8, !dbg !2248
  %338 = bitcast %class.ImgWriter* %337 to i1 (%class.ImgWriter*, i8**)***, !dbg !2249
  %339 = load i1 (%class.ImgWriter*, i8**)**, i1 (%class.ImgWriter*, i8**)*** %338, align 8, !dbg !2249
  %340 = getelementptr inbounds i1 (%class.ImgWriter*, i8**)*, i1 (%class.ImgWriter*, i8**)** %339, i64 4, !dbg !2249
  %341 = load i1 (%class.ImgWriter*, i8**)*, i1 (%class.ImgWriter*, i8**)** %340, align 8, !dbg !2249
  %342 = call zeroext i1 %341(%class.ImgWriter* %337, i8** %9), !dbg !2249
  br label %343, !dbg !2250

; <label>:343:                                    ; preds = %336
  %344 = load i32, i32* %10, align 4, !dbg !2251
  %345 = add nsw i32 %344, 1, !dbg !2251
  store i32 %345, i32* %10, align 4, !dbg !2251
  br label %123, !dbg !2252, !llvm.loop !2253

; <label>:346:                                    ; preds = %123
  %347 = load i8*, i8** %9, align 8, !dbg !2255
  call void @gfree(i8* %347), !dbg !2256
  %348 = load %class.ImgWriter*, %class.ImgWriter** %3, align 8, !dbg !2257
  %349 = bitcast %class.ImgWriter* %348 to i1 (%class.ImgWriter*)***, !dbg !2258
  %350 = load i1 (%class.ImgWriter*)**, i1 (%class.ImgWriter*)*** %349, align 8, !dbg !2258
  %351 = getelementptr inbounds i1 (%class.ImgWriter*)*, i1 (%class.ImgWriter*)** %350, i64 5, !dbg !2258
  %352 = load i1 (%class.ImgWriter*)*, i1 (%class.ImgWriter*)** %351, align 8, !dbg !2258
  %353 = call zeroext i1 %352(%class.ImgWriter* %348), !dbg !2258
  %354 = load %class.ImgWriter*, %class.ImgWriter** %3, align 8, !dbg !2259
  %355 = icmp eq %class.ImgWriter* %354, null, !dbg !2260
  br i1 %355, label %361, label %356, !dbg !2260

; <label>:356:                                    ; preds = %346
  %357 = bitcast %class.ImgWriter* %354 to void (%class.ImgWriter*)***, !dbg !2260
  %358 = load void (%class.ImgWriter*)**, void (%class.ImgWriter*)*** %357, align 8, !dbg !2260
  %359 = getelementptr inbounds void (%class.ImgWriter*)*, void (%class.ImgWriter*)** %358, i64 1, !dbg !2260
  %360 = load void (%class.ImgWriter*)*, void (%class.ImgWriter*)** %359, align 8, !dbg !2260
  call void %360(%class.ImgWriter* %354), !dbg !2260
  br label %361, !dbg !2260

; <label>:361:                                    ; preds = %356, %346
  %362 = load %struct._IO_FILE*, %struct._IO_FILE** %4, align 8, !dbg !2261
  %363 = load %struct._IO_FILE*, %struct._IO_FILE** @stdout, align 8, !dbg !2263
  %364 = icmp eq %struct._IO_FILE* %362, %363, !dbg !2264
  br i1 %364, label %365, label %368, !dbg !2265

; <label>:365:                                    ; preds = %361
  %366 = load %struct._IO_FILE*, %struct._IO_FILE** %4, align 8, !dbg !2266
  %367 = call i32 @fflush(%struct._IO_FILE* %366), !dbg !2267
  br label %371, !dbg !2267

; <label>:368:                                    ; preds = %361
  %369 = load %struct._IO_FILE*, %struct._IO_FILE** %4, align 8, !dbg !2268
  %370 = call i32 @fclose(%struct._IO_FILE* %369), !dbg !2269
  br label %371

; <label>:371:                                    ; preds = %368, %365, %74
  ret void, !dbg !2270
}

; Function Attrs: nounwind readnone speculatable
declare void @llvm.dbg.declare(metadata, metadata, metadata) #4

; Function Attrs: nobuiltin
declare noalias i8* @_Znwm(i64) #5

declare void @_ZN9PNGWriterC1ENS_6FormatE(%class.PNGWriter*, i32) unnamed_addr #1

declare void @_ZN10JpegWriterC1ENS_6FormatE(%class.JpegWriter*, i32) unnamed_addr #1

declare i32 @_ZNK9GooString3cmpEPKc(%class.GooString*, i8*) #1

; Function Attrs: noinline nounwind optnone uwtable
define weak_odr dso_local i8* @_ZNK9GooString10getCStringEv(%class.GooString*) #3 comdat align 2 !dbg !2271 {
  %2 = alloca %class.GooString*, align 8
  store %class.GooString* %0, %class.GooString** %2, align 8
  call void @llvm.dbg.declare(metadata %class.GooString** %2, metadata !2272, metadata !DIExpression()), !dbg !2273
  %3 = load %class.GooString*, %class.GooString** %2, align 8
  %4 = getelementptr inbounds %class.GooString, %class.GooString* %3, i32 0, i32 2, !dbg !2274
  %5 = load i8*, i8** %4, align 8, !dbg !2274
  ret i8* %5, !dbg !2275
}

declare %struct._IO_FILE* @fopen(i8*, i8*) #1

declare i32 @fprintf(%struct._IO_FILE*, i8*, ...) #1

; Function Attrs: noreturn nounwind
declare void @exit(i32) #6

declare i32 @cairo_image_surface_get_height(%struct._cairo_surface*) #1

declare i32 @cairo_image_surface_get_width(%struct._cairo_surface*) #1

declare i32 @cairo_image_surface_get_stride(%struct._cairo_surface*) #1

declare i8* @cairo_image_surface_get_data(%struct._cairo_surface*) #1

declare i8* @gmallocn(i32, i32) #1

declare void @gfree(i8*) #1

declare i32 @fflush(%struct._IO_FILE*) #1

declare i32 @fclose(%struct._IO_FILE*) #1

; Function Attrs: noinline norecurse nounwind optnone uwtable
define dso_local i32 @main(i32, i8**) #7 !dbg !2276 {
  %3 = alloca i32, align 4
  %4 = alloca i32, align 4
  %5 = alloca i8**, align 8
  %6 = alloca %class.PDFDoc*, align 8
  %7 = alloca %class.GooString*, align 8
  %8 = alloca %class.GooString*, align 8
  %9 = alloca %class.GooString*, align 8
  %10 = alloca %class.GooString*, align 8
  %11 = alloca %class.GooString*, align 8
  %12 = alloca %class.GooString*, align 8
  %13 = alloca %class.CairoOutputDev*, align 8
  %14 = alloca i32, align 4
  %15 = alloca i32, align 4
  %16 = alloca double, align 8
  %17 = alloca double, align 8
  %18 = alloca double, align 8
  %19 = alloca double, align 8
  %20 = alloca double, align 8
  %21 = alloca i32, align 4
  %22 = alloca %class.PDFDocFactory, align 8
  store i32 0, i32* %3, align 4
  store i32 %0, i32* %4, align 4
  call void @llvm.dbg.declare(metadata i32* %4, metadata !2279, metadata !DIExpression()), !dbg !2280
  store i8** %1, i8*** %5, align 8
  call void @llvm.dbg.declare(metadata i8*** %5, metadata !2281, metadata !DIExpression()), !dbg !2282
  call void @llvm.dbg.declare(metadata %class.PDFDoc** %6, metadata !2283, metadata !DIExpression()), !dbg !2284
  call void @llvm.dbg.declare(metadata %class.GooString** %7, metadata !2285, metadata !DIExpression()), !dbg !2286
  store %class.GooString* null, %class.GooString** %7, align 8, !dbg !2286
  call void @llvm.dbg.declare(metadata %class.GooString** %8, metadata !2287, metadata !DIExpression()), !dbg !2288
  store %class.GooString* null, %class.GooString** %8, align 8, !dbg !2288
  call void @llvm.dbg.declare(metadata %class.GooString** %9, metadata !2289, metadata !DIExpression()), !dbg !2290
  store %class.GooString* null, %class.GooString** %9, align 8, !dbg !2290
  call void @llvm.dbg.declare(metadata %class.GooString** %10, metadata !2291, metadata !DIExpression()), !dbg !2292
  store %class.GooString* null, %class.GooString** %10, align 8, !dbg !2292
  call void @llvm.dbg.declare(metadata %class.GooString** %11, metadata !2293, metadata !DIExpression()), !dbg !2294
  call void @llvm.dbg.declare(metadata %class.GooString** %12, metadata !2295, metadata !DIExpression()), !dbg !2296
  call void @llvm.dbg.declare(metadata %class.CairoOutputDev** %13, metadata !2297, metadata !DIExpression()), !dbg !2301
  call void @llvm.dbg.declare(metadata i32* %14, metadata !2302, metadata !DIExpression()), !dbg !2303
  call void @llvm.dbg.declare(metadata i32* %15, metadata !2304, metadata !DIExpression()), !dbg !2305
  call void @llvm.dbg.declare(metadata double* %16, metadata !2306, metadata !DIExpression()), !dbg !2307
  call void @llvm.dbg.declare(metadata double* %17, metadata !2308, metadata !DIExpression()), !dbg !2309
  call void @llvm.dbg.declare(metadata double* %18, metadata !2310, metadata !DIExpression()), !dbg !2311
  call void @llvm.dbg.declare(metadata double* %19, metadata !2312, metadata !DIExpression()), !dbg !2313
  call void @llvm.dbg.declare(metadata double* %20, metadata !2314, metadata !DIExpression()), !dbg !2315
  call void @llvm.dbg.declare(metadata i32* %21, metadata !2316, metadata !DIExpression()), !dbg !2317
  %23 = load i8**, i8*** %5, align 8, !dbg !2318
  %24 = call zeroext i1 @parseArgs(%struct.ArgDesc* getelementptr inbounds ([46 x %struct.ArgDesc], [46 x %struct.ArgDesc]* @_ZL7argDesc, i32 0, i32 0), i32* %4, i8** %23), !dbg !2320
  br i1 %24, label %26, label %25, !dbg !2321

; <label>:25:                                     ; preds = %2
  call void @exit(i32 99) #12, !dbg !2322
  unreachable, !dbg !2322

; <label>:26:                                     ; preds = %2
  %27 = load double, double* @_ZL10resolution, align 8, !dbg !2323
  %28 = fcmp une double %27, 0.000000e+00, !dbg !2325
  br i1 %28, label %29, label %38, !dbg !2326

; <label>:29:                                     ; preds = %26
  %30 = load double, double* @_ZL12x_resolution, align 8, !dbg !2327
  %31 = fcmp oeq double %30, 1.500000e+02, !dbg !2328
  br i1 %31, label %35, label %32, !dbg !2329

; <label>:32:                                     ; preds = %29
  %33 = load double, double* @_ZL12y_resolution, align 8, !dbg !2330
  %34 = fcmp oeq double %33, 1.500000e+02, !dbg !2331
  br i1 %34, label %35, label %38, !dbg !2332

; <label>:35:                                     ; preds = %32, %29
  %36 = load double, double* @_ZL10resolution, align 8, !dbg !2333
  store double %36, double* @_ZL12x_resolution, align 8, !dbg !2335
  %37 = load double, double* @_ZL10resolution, align 8, !dbg !2336
  store double %37, double* @_ZL12y_resolution, align 8, !dbg !2337
  br label %38, !dbg !2338

; <label>:38:                                     ; preds = %35, %32, %26
  %39 = load i32, i32* %4, align 4, !dbg !2339
  %40 = icmp slt i32 %39, 2, !dbg !2341
  br i1 %40, label %50, label %41, !dbg !2342

; <label>:41:                                     ; preds = %38
  %42 = load i32, i32* %4, align 4, !dbg !2343
  %43 = icmp sgt i32 %42, 3, !dbg !2344
  br i1 %43, label %50, label %44, !dbg !2345

; <label>:44:                                     ; preds = %41
  %45 = load i8, i8* @_ZL12printVersion, align 1, !dbg !2346
  %46 = trunc i8 %45 to i1, !dbg !2346
  br i1 %46, label %50, label %47, !dbg !2347

; <label>:47:                                     ; preds = %44
  %48 = load i8, i8* @_ZL9printHelp, align 1, !dbg !2348
  %49 = trunc i8 %48 to i1, !dbg !2348
  br i1 %49, label %50, label %68, !dbg !2349

; <label>:50:                                     ; preds = %47, %44, %41, %38
  %51 = load %struct._IO_FILE*, %struct._IO_FILE** @stderr, align 8, !dbg !2350
  %52 = call i32 (%struct._IO_FILE*, i8*, ...) @fprintf(%struct._IO_FILE* %51, i8* getelementptr inbounds ([23 x i8], [23 x i8]* @.str.4, i32 0, i32 0), i8* getelementptr inbounds ([7 x i8], [7 x i8]* @.str.5, i32 0, i32 0)), !dbg !2352
  %53 = load %struct._IO_FILE*, %struct._IO_FILE** @stderr, align 8, !dbg !2353
  %54 = call i32 (%struct._IO_FILE*, i8*, ...) @fprintf(%struct._IO_FILE* %53, i8* getelementptr inbounds ([4 x i8], [4 x i8]* @.str.6, i32 0, i32 0), i8* getelementptr inbounds ([76 x i8], [76 x i8]* @.str.7, i32 0, i32 0)), !dbg !2354
  %55 = load %struct._IO_FILE*, %struct._IO_FILE** @stderr, align 8, !dbg !2355
  %56 = call i32 (%struct._IO_FILE*, i8*, ...) @fprintf(%struct._IO_FILE* %55, i8* getelementptr inbounds ([4 x i8], [4 x i8]* @.str.6, i32 0, i32 0), i8* getelementptr inbounds ([37 x i8], [37 x i8]* @.str.8, i32 0, i32 0)), !dbg !2356
  %57 = load i8, i8* @_ZL12printVersion, align 1, !dbg !2357
  %58 = trunc i8 %57 to i1, !dbg !2357
  br i1 %58, label %60, label %59, !dbg !2359

; <label>:59:                                     ; preds = %50
  call void @printUsage(i8* getelementptr inbounds ([11 x i8], [11 x i8]* @.str.9, i32 0, i32 0), i8* getelementptr inbounds ([27 x i8], [27 x i8]* @.str.10, i32 0, i32 0), %struct.ArgDesc* getelementptr inbounds ([46 x %struct.ArgDesc], [46 x %struct.ArgDesc]* @_ZL7argDesc, i32 0, i32 0)), !dbg !2360
  br label %60, !dbg !2362

; <label>:60:                                     ; preds = %59, %50
  %61 = load i8, i8* @_ZL12printVersion, align 1, !dbg !2363
  %62 = trunc i8 %61 to i1, !dbg !2363
  br i1 %62, label %66, label %63, !dbg !2365

; <label>:63:                                     ; preds = %60
  %64 = load i8, i8* @_ZL9printHelp, align 1, !dbg !2366
  %65 = trunc i8 %64 to i1, !dbg !2366
  br i1 %65, label %66, label %67, !dbg !2367

; <label>:66:                                     ; preds = %63, %60
  call void @exit(i32 0) #12, !dbg !2368
  unreachable, !dbg !2368

; <label>:67:                                     ; preds = %63
  call void @exit(i32 99) #12, !dbg !2369
  unreachable, !dbg !2369

; <label>:68:                                     ; preds = %47
  %69 = load i8, i8* @_ZL3png, align 1, !dbg !2370
  %70 = trunc i8 %69 to i1, !dbg !2370
  %71 = zext i1 %70 to i64, !dbg !2370
  %72 = select i1 %70, i32 1, i32 0, !dbg !2370
  %73 = load i8, i8* @_ZL4jpeg, align 1, !dbg !2371
  %74 = trunc i8 %73 to i1, !dbg !2371
  %75 = zext i1 %74 to i64, !dbg !2371
  %76 = select i1 %74, i32 1, i32 0, !dbg !2371
  %77 = add nsw i32 %72, %76, !dbg !2372
  %78 = load i8, i8* @_ZL4tiff, align 1, !dbg !2373
  %79 = trunc i8 %78 to i1, !dbg !2373
  %80 = zext i1 %79 to i64, !dbg !2373
  %81 = select i1 %79, i32 1, i32 0, !dbg !2373
  %82 = add nsw i32 %77, %81, !dbg !2374
  %83 = load i8, i8* @_ZL2ps, align 1, !dbg !2375
  %84 = trunc i8 %83 to i1, !dbg !2375
  %85 = zext i1 %84 to i64, !dbg !2375
  %86 = select i1 %84, i32 1, i32 0, !dbg !2375
  %87 = add nsw i32 %82, %86, !dbg !2376
  %88 = load i8, i8* @_ZL3eps, align 1, !dbg !2377
  %89 = trunc i8 %88 to i1, !dbg !2377
  %90 = zext i1 %89 to i64, !dbg !2377
  %91 = select i1 %89, i32 1, i32 0, !dbg !2377
  %92 = add nsw i32 %87, %91, !dbg !2378
  %93 = load i8, i8* @_ZL3pdf, align 1, !dbg !2379
  %94 = trunc i8 %93 to i1, !dbg !2379
  %95 = zext i1 %94 to i64, !dbg !2379
  %96 = select i1 %94, i32 1, i32 0, !dbg !2379
  %97 = add nsw i32 %92, %96, !dbg !2380
  %98 = load i8, i8* @_ZL3svg, align 1, !dbg !2381
  %99 = trunc i8 %98 to i1, !dbg !2381
  %100 = zext i1 %99 to i64, !dbg !2381
  %101 = select i1 %99, i32 1, i32 0, !dbg !2381
  %102 = add nsw i32 %97, %101, !dbg !2382
  store i32 %102, i32* %21, align 4, !dbg !2383
  %103 = load i32, i32* %21, align 4, !dbg !2384
  %104 = icmp eq i32 %103, 0, !dbg !2386
  br i1 %104, label %105, label %108, !dbg !2387

; <label>:105:                                    ; preds = %68
  %106 = load %struct._IO_FILE*, %struct._IO_FILE** @stderr, align 8, !dbg !2388
  %107 = call i32 (%struct._IO_FILE*, i8*, ...) @fprintf(%struct._IO_FILE* %106, i8* getelementptr inbounds ([92 x i8], [92 x i8]* @.str.11, i32 0, i32 0)), !dbg !2390
  call void @exit(i32 99) #12, !dbg !2391
  unreachable, !dbg !2391

; <label>:108:                                    ; preds = %68
  %109 = load i32, i32* %21, align 4, !dbg !2392
  %110 = icmp sgt i32 %109, 1, !dbg !2394
  br i1 %110, label %111, label %114, !dbg !2395

; <label>:111:                                    ; preds = %108
  %112 = load %struct._IO_FILE*, %struct._IO_FILE** @stderr, align 8, !dbg !2396
  %113 = call i32 (%struct._IO_FILE*, i8*, ...) @fprintf(%struct._IO_FILE* %112, i8* getelementptr inbounds ([88 x i8], [88 x i8]* @.str.12, i32 0, i32 0)), !dbg !2398
  call void @exit(i32 99) #12, !dbg !2399
  unreachable, !dbg !2399

; <label>:114:                                    ; preds = %108
  %115 = load i8, i8* @_ZL3png, align 1, !dbg !2400
  %116 = trunc i8 %115 to i1, !dbg !2400
  br i1 %116, label %123, label %117, !dbg !2402

; <label>:117:                                    ; preds = %114
  %118 = load i8, i8* @_ZL4jpeg, align 1, !dbg !2403
  %119 = trunc i8 %118 to i1, !dbg !2403
  br i1 %119, label %123, label %120, !dbg !2404

; <label>:120:                                    ; preds = %117
  %121 = load i8, i8* @_ZL4tiff, align 1, !dbg !2405
  %122 = trunc i8 %121 to i1, !dbg !2405
  br i1 %122, label %123, label %124, !dbg !2406

; <label>:123:                                    ; preds = %120, %117, %114
  store i8 0, i8* @_ZL8printing, align 1, !dbg !2407
  br label %125, !dbg !2408

; <label>:124:                                    ; preds = %120
  store i8 1, i8* @_ZL8printing, align 1, !dbg !2409
  br label %125

; <label>:125:                                    ; preds = %124, %123
  %126 = load i8, i8* @_ZL8printing, align 1, !dbg !2410
  %127 = trunc i8 %126 to i1, !dbg !2410
  br i1 %127, label %128, label %141, !dbg !2412

; <label>:128:                                    ; preds = %125
  %129 = load i8, i8* @_ZL4mono, align 1, !dbg !2413
  %130 = trunc i8 %129 to i1, !dbg !2413
  call void @_ZL23checkInvalidPrintOptionbPKc(i1 zeroext %130, i8* getelementptr inbounds ([6 x i8], [6 x i8]* @.str.13, i32 0, i32 0)), !dbg !2415
  %131 = load i8, i8* @_ZL4gray, align 1, !dbg !2416
  %132 = trunc i8 %131 to i1, !dbg !2416
  call void @_ZL23checkInvalidPrintOptionbPKc(i1 zeroext %132, i8* getelementptr inbounds ([6 x i8], [6 x i8]* @.str.14, i32 0, i32 0)), !dbg !2417
  %133 = load i8, i8* @_ZL6transp, align 1, !dbg !2418
  %134 = trunc i8 %133 to i1, !dbg !2418
  call void @_ZL23checkInvalidPrintOptionbPKc(i1 zeroext %134, i8* getelementptr inbounds ([8 x i8], [8 x i8]* @.str.15, i32 0, i32 0)), !dbg !2419
  %135 = call i8* @_ZNK9GooString10getCStringEv(%class.GooString* @_ZL3icc), !dbg !2420
  %136 = getelementptr inbounds i8, i8* %135, i64 0, !dbg !2420
  %137 = load i8, i8* %136, align 1, !dbg !2420
  %138 = icmp ne i8 %137, 0, !dbg !2421
  call void @_ZL23checkInvalidPrintOptionbPKc(i1 zeroext %138, i8* getelementptr inbounds ([5 x i8], [5 x i8]* @.str.16, i32 0, i32 0)), !dbg !2422
  %139 = load i8, i8* @_ZL10singleFile, align 1, !dbg !2423
  %140 = trunc i8 %139 to i1, !dbg !2423
  call void @_ZL23checkInvalidPrintOptionbPKc(i1 zeroext %140, i8* getelementptr inbounds ([12 x i8], [12 x i8]* @.str.17, i32 0, i32 0)), !dbg !2424
  br label %164, !dbg !2425

; <label>:141:                                    ; preds = %125
  %142 = load i8, i8* @_ZL6level2, align 1, !dbg !2426
  %143 = trunc i8 %142 to i1, !dbg !2426
  call void @_ZL23checkInvalidImageOptionbPKc(i1 zeroext %143, i8* getelementptr inbounds ([8 x i8], [8 x i8]* @.str.18, i32 0, i32 0)), !dbg !2428
  %144 = load i8, i8* @_ZL6level3, align 1, !dbg !2429
  %145 = trunc i8 %144 to i1, !dbg !2429
  call void @_ZL23checkInvalidImageOptionbPKc(i1 zeroext %145, i8* getelementptr inbounds ([8 x i8], [8 x i8]* @.str.19, i32 0, i32 0)), !dbg !2430
  %146 = load i8, i8* @_ZL15doOrigPageSizes, align 1, !dbg !2431
  %147 = trunc i8 %146 to i1, !dbg !2431
  call void @_ZL23checkInvalidImageOptionbPKc(i1 zeroext %147, i8* getelementptr inbounds ([15 x i8], [15 x i8]* @.str.20, i32 0, i32 0)), !dbg !2432
  %148 = load i8, i8* getelementptr inbounds ([15 x i8], [15 x i8]* @_ZL9paperSize, i64 0, i64 0), align 1, !dbg !2433
  %149 = icmp ne i8 %148, 0, !dbg !2433
  call void @_ZL23checkInvalidImageOptionbPKc(i1 zeroext %149, i8* getelementptr inbounds ([7 x i8], [7 x i8]* @.str.21, i32 0, i32 0)), !dbg !2434
  %150 = load i32, i32* @_ZL10paperWidth, align 4, !dbg !2435
  %151 = icmp sgt i32 %150, 0, !dbg !2436
  call void @_ZL23checkInvalidImageOptionbPKc(i1 zeroext %151, i8* getelementptr inbounds ([8 x i8], [8 x i8]* @.str.22, i32 0, i32 0)), !dbg !2437
  %152 = load i32, i32* @_ZL11paperHeight, align 4, !dbg !2438
  %153 = icmp sgt i32 %152, 0, !dbg !2439
  call void @_ZL23checkInvalidImageOptionbPKc(i1 zeroext %153, i8* getelementptr inbounds ([8 x i8], [8 x i8]* @.str.23, i32 0, i32 0)), !dbg !2440
  %154 = load i8, i8* @_ZL6noCrop, align 1, !dbg !2441
  %155 = trunc i8 %154 to i1, !dbg !2441
  call void @_ZL23checkInvalidImageOptionbPKc(i1 zeroext %155, i8* getelementptr inbounds ([8 x i8], [8 x i8]* @.str.24, i32 0, i32 0)), !dbg !2442
  %156 = load i8, i8* @_ZL6expand, align 1, !dbg !2443
  %157 = trunc i8 %156 to i1, !dbg !2443
  call void @_ZL23checkInvalidImageOptionbPKc(i1 zeroext %157, i8* getelementptr inbounds ([8 x i8], [8 x i8]* @.str.25, i32 0, i32 0)), !dbg !2444
  %158 = load i8, i8* @_ZL8noShrink, align 1, !dbg !2445
  %159 = trunc i8 %158 to i1, !dbg !2445
  call void @_ZL23checkInvalidImageOptionbPKc(i1 zeroext %159, i8* getelementptr inbounds ([10 x i8], [10 x i8]* @.str.26, i32 0, i32 0)), !dbg !2446
  %160 = load i8, i8* @_ZL8noCenter, align 1, !dbg !2447
  %161 = trunc i8 %160 to i1, !dbg !2447
  call void @_ZL23checkInvalidImageOptionbPKc(i1 zeroext %161, i8* getelementptr inbounds ([10 x i8], [10 x i8]* @.str.27, i32 0, i32 0)), !dbg !2448
  %162 = load i8, i8* @_ZL6duplex, align 1, !dbg !2449
  %163 = trunc i8 %162 to i1, !dbg !2449
  call void @_ZL23checkInvalidImageOptionbPKc(i1 zeroext %163, i8* getelementptr inbounds ([8 x i8], [8 x i8]* @.str.28, i32 0, i32 0)), !dbg !2450
  br label %164

; <label>:164:                                    ; preds = %141, %128
  %165 = call i8* @_ZNK9GooString10getCStringEv(%class.GooString* @_ZL3icc), !dbg !2451
  %166 = getelementptr inbounds i8, i8* %165, i64 0, !dbg !2451
  %167 = load i8, i8* %166, align 1, !dbg !2451
  %168 = icmp ne i8 %167, 0, !dbg !2453
  br i1 %168, label %169, label %175, !dbg !2454

; <label>:169:                                    ; preds = %164
  %170 = load i8, i8* @_ZL3png, align 1, !dbg !2455
  %171 = trunc i8 %170 to i1, !dbg !2455
  br i1 %171, label %175, label %172, !dbg !2456

; <label>:172:                                    ; preds = %169
  %173 = load %struct._IO_FILE*, %struct._IO_FILE** @stderr, align 8, !dbg !2457
  %174 = call i32 (%struct._IO_FILE*, i8*, ...) @fprintf(%struct._IO_FILE* %173, i8* getelementptr inbounds ([47 x i8], [47 x i8]* @.str.29, i32 0, i32 0)), !dbg !2459
  call void @exit(i32 99) #12, !dbg !2460
  unreachable, !dbg !2460

; <label>:175:                                    ; preds = %169, %164
  %176 = load i8, i8* @_ZL6transp, align 1, !dbg !2461
  %177 = trunc i8 %176 to i1, !dbg !2461
  br i1 %177, label %178, label %187, !dbg !2463

; <label>:178:                                    ; preds = %175
  %179 = load i8, i8* @_ZL3png, align 1, !dbg !2464
  %180 = trunc i8 %179 to i1, !dbg !2464
  br i1 %180, label %187, label %181, !dbg !2465

; <label>:181:                                    ; preds = %178
  %182 = load i8, i8* @_ZL4tiff, align 1, !dbg !2466
  %183 = trunc i8 %182 to i1, !dbg !2466
  br i1 %183, label %187, label %184, !dbg !2467

; <label>:184:                                    ; preds = %181
  %185 = load %struct._IO_FILE*, %struct._IO_FILE** @stderr, align 8, !dbg !2468
  %186 = call i32 (%struct._IO_FILE*, i8*, ...) @fprintf(%struct._IO_FILE* %185, i8* getelementptr inbounds ([58 x i8], [58 x i8]* @.str.30, i32 0, i32 0)), !dbg !2470
  call void @exit(i32 99) #12, !dbg !2471
  unreachable, !dbg !2471

; <label>:187:                                    ; preds = %181, %178, %175
  %188 = load i8, i8* @_ZL4mono, align 1, !dbg !2472
  %189 = trunc i8 %188 to i1, !dbg !2472
  br i1 %189, label %190, label %196, !dbg !2474

; <label>:190:                                    ; preds = %187
  %191 = load i8, i8* @_ZL4gray, align 1, !dbg !2475
  %192 = trunc i8 %191 to i1, !dbg !2475
  br i1 %192, label %193, label %196, !dbg !2476

; <label>:193:                                    ; preds = %190
  %194 = load %struct._IO_FILE*, %struct._IO_FILE** @stderr, align 8, !dbg !2477
  %195 = call i32 (%struct._IO_FILE*, i8*, ...) @fprintf(%struct._IO_FILE* %194, i8* getelementptr inbounds ([50 x i8], [50 x i8]* @.str.31, i32 0, i32 0)), !dbg !2479
  call void @exit(i32 99) #12, !dbg !2480
  unreachable, !dbg !2480

; <label>:196:                                    ; preds = %190, %187
  %197 = load i8, i8* @_ZL4mono, align 1, !dbg !2481
  %198 = trunc i8 %197 to i1, !dbg !2481
  br i1 %198, label %199, label %208, !dbg !2483

; <label>:199:                                    ; preds = %196
  %200 = load i8, i8* @_ZL3png, align 1, !dbg !2484
  %201 = trunc i8 %200 to i1, !dbg !2484
  br i1 %201, label %208, label %202, !dbg !2485

; <label>:202:                                    ; preds = %199
  %203 = load i8, i8* @_ZL4tiff, align 1, !dbg !2486
  %204 = trunc i8 %203 to i1, !dbg !2486
  br i1 %204, label %208, label %205, !dbg !2487

; <label>:205:                                    ; preds = %202
  %206 = load %struct._IO_FILE*, %struct._IO_FILE** @stderr, align 8, !dbg !2488
  %207 = call i32 (%struct._IO_FILE*, i8*, ...) @fprintf(%struct._IO_FILE* %206, i8* getelementptr inbounds ([56 x i8], [56 x i8]* @.str.32, i32 0, i32 0)), !dbg !2490
  call void @exit(i32 99) #12, !dbg !2491
  unreachable, !dbg !2491

; <label>:208:                                    ; preds = %202, %199, %196
  %209 = call i64 @strlen(i8* getelementptr inbounds ([16 x i8], [16 x i8]* @_ZL18tiffCompressionStr, i32 0, i32 0)) #13, !dbg !2492
  %210 = icmp ugt i64 %209, 0, !dbg !2494
  br i1 %210, label %211, label %217, !dbg !2495

; <label>:211:                                    ; preds = %208
  %212 = load i8, i8* @_ZL4tiff, align 1, !dbg !2496
  %213 = trunc i8 %212 to i1, !dbg !2496
  br i1 %213, label %217, label %214, !dbg !2497

; <label>:214:                                    ; preds = %211
  %215 = load %struct._IO_FILE*, %struct._IO_FILE** @stderr, align 8, !dbg !2498
  %216 = call i32 (%struct._IO_FILE*, i8*, ...) @fprintf(%struct._IO_FILE* %215, i8* getelementptr inbounds ([60 x i8], [60 x i8]* @.str.33, i32 0, i32 0)), !dbg !2500
  call void @exit(i32 99) #12, !dbg !2501
  unreachable, !dbg !2501

; <label>:217:                                    ; preds = %211, %208
  %218 = load i8, i8* @_ZL6level2, align 1, !dbg !2502
  %219 = trunc i8 %218 to i1, !dbg !2502
  br i1 %219, label %220, label %226, !dbg !2504

; <label>:220:                                    ; preds = %217
  %221 = load i8, i8* @_ZL6level3, align 1, !dbg !2505
  %222 = trunc i8 %221 to i1, !dbg !2505
  br i1 %222, label %223, label %226, !dbg !2506

; <label>:223:                                    ; preds = %220
  %224 = load %struct._IO_FILE*, %struct._IO_FILE** @stderr, align 8, !dbg !2507
  %225 = call i32 (%struct._IO_FILE*, i8*, ...) @fprintf(%struct._IO_FILE* %224, i8* getelementptr inbounds ([45 x i8], [45 x i8]* @.str.34, i32 0, i32 0)), !dbg !2509
  call void @exit(i32 99) #12, !dbg !2510
  unreachable, !dbg !2510

; <label>:226:                                    ; preds = %220, %217
  %227 = load i8, i8* @_ZL6level2, align 1, !dbg !2511
  %228 = trunc i8 %227 to i1, !dbg !2511
  br i1 %228, label %233, label %229, !dbg !2513

; <label>:229:                                    ; preds = %226
  %230 = load i8, i8* @_ZL6level3, align 1, !dbg !2514
  %231 = trunc i8 %230 to i1, !dbg !2514
  br i1 %231, label %233, label %232, !dbg !2515

; <label>:232:                                    ; preds = %229
  store i8 1, i8* @_ZL6level3, align 1, !dbg !2516
  br label %233, !dbg !2517

; <label>:233:                                    ; preds = %232, %229, %226
  %234 = load i8, i8* @_ZL3eps, align 1, !dbg !2518
  %235 = trunc i8 %234 to i1, !dbg !2518
  br i1 %235, label %236, label %251, !dbg !2520

; <label>:236:                                    ; preds = %233
  %237 = load i8, i8* @_ZL15doOrigPageSizes, align 1, !dbg !2521
  %238 = trunc i8 %237 to i1, !dbg !2521
  br i1 %238, label %248, label %239, !dbg !2522

; <label>:239:                                    ; preds = %236
  %240 = load i8, i8* getelementptr inbounds ([15 x i8], [15 x i8]* @_ZL9paperSize, i64 0, i64 0), align 1, !dbg !2523
  %241 = icmp ne i8 %240, 0, !dbg !2523
  br i1 %241, label %248, label %242, !dbg !2524

; <label>:242:                                    ; preds = %239
  %243 = load i32, i32* @_ZL10paperWidth, align 4, !dbg !2525
  %244 = icmp sgt i32 %243, 0, !dbg !2526
  br i1 %244, label %248, label %245, !dbg !2527

; <label>:245:                                    ; preds = %242
  %246 = load i32, i32* @_ZL11paperHeight, align 4, !dbg !2528
  %247 = icmp sgt i32 %246, 0, !dbg !2529
  br i1 %247, label %248, label %251, !dbg !2530

; <label>:248:                                    ; preds = %245, %242, %239, %236
  %249 = load %struct._IO_FILE*, %struct._IO_FILE** @stderr, align 8, !dbg !2531
  %250 = call i32 (%struct._IO_FILE*, i8*, ...) @fprintf(%struct._IO_FILE* %249, i8* getelementptr inbounds ([59 x i8], [59 x i8]* @.str.35, i32 0, i32 0)), !dbg !2533
  call void @exit(i32 99) #12, !dbg !2534
  unreachable, !dbg !2534

; <label>:251:                                    ; preds = %245, %233
  %252 = load i8, i8* getelementptr inbounds ([15 x i8], [15 x i8]* @_ZL9paperSize, i64 0, i64 0), align 1, !dbg !2535
  %253 = icmp ne i8 %252, 0, !dbg !2535
  br i1 %253, label %254, label %260, !dbg !2537

; <label>:254:                                    ; preds = %251
  %255 = call zeroext i1 @_ZL14setPSPaperSizePcRiS0_(i8* getelementptr inbounds ([15 x i8], [15 x i8]* @_ZL9paperSize, i32 0, i32 0), i32* dereferenceable(4) @_ZL10paperWidth, i32* dereferenceable(4) @_ZL11paperHeight), !dbg !2538
  br i1 %255, label %259, label %256, !dbg !2541

; <label>:256:                                    ; preds = %254
  %257 = load %struct._IO_FILE*, %struct._IO_FILE** @stderr, align 8, !dbg !2542
  %258 = call i32 (%struct._IO_FILE*, i8*, ...) @fprintf(%struct._IO_FILE* %257, i8* getelementptr inbounds ([20 x i8], [20 x i8]* @.str.36, i32 0, i32 0)), !dbg !2544
  call void @exit(i32 99) #12, !dbg !2545
  unreachable, !dbg !2545

; <label>:259:                                    ; preds = %254
  br label %260, !dbg !2546

; <label>:260:                                    ; preds = %259, %251
  %261 = call i8* @_Znwm(i64 416) #11, !dbg !2547
  %262 = bitcast i8* %261 to %class.GlobalParams*, !dbg !2547
  call void @_ZN12GlobalParamsC1EPKc(%class.GlobalParams* %262, i8* null), !dbg !2548
  store %class.GlobalParams* %262, %class.GlobalParams** @globalParams, align 8, !dbg !2549
  %263 = load i8, i8* @_ZL5quiet, align 1, !dbg !2550
  %264 = trunc i8 %263 to i1, !dbg !2550
  br i1 %264, label %265, label %269, !dbg !2552

; <label>:265:                                    ; preds = %260
  %266 = load %class.GlobalParams*, %class.GlobalParams** @globalParams, align 8, !dbg !2553
  %267 = load i8, i8* @_ZL5quiet, align 1, !dbg !2555
  %268 = trunc i8 %267 to i1, !dbg !2555
  call void @_ZN12GlobalParams11setErrQuietEb(%class.GlobalParams* %266, i1 zeroext %268), !dbg !2556
  br label %269, !dbg !2557

; <label>:269:                                    ; preds = %265, %260
  %270 = load i8, i8* getelementptr inbounds ([33 x i8], [33 x i8]* @_ZL13ownerPassword, i64 0, i64 0), align 16, !dbg !2558
  %271 = icmp ne i8 %270, 0, !dbg !2558
  br i1 %271, label %272, label %275, !dbg !2560

; <label>:272:                                    ; preds = %269
  %273 = call i8* @_Znwm(i64 40) #11, !dbg !2561
  %274 = bitcast i8* %273 to %class.GooString*, !dbg !2561
  call void @_ZN9GooStringC1EPKc(%class.GooString* %274, i8* getelementptr inbounds ([33 x i8], [33 x i8]* @_ZL13ownerPassword, i32 0, i32 0)), !dbg !2563
  store %class.GooString* %274, %class.GooString** %11, align 8, !dbg !2564
  br label %276, !dbg !2565

; <label>:275:                                    ; preds = %269
  store %class.GooString* null, %class.GooString** %11, align 8, !dbg !2566
  br label %276

; <label>:276:                                    ; preds = %275, %272
  %277 = load i8, i8* getelementptr inbounds ([33 x i8], [33 x i8]* @_ZL12userPassword, i64 0, i64 0), align 16, !dbg !2568
  %278 = icmp ne i8 %277, 0, !dbg !2568
  br i1 %278, label %279, label %282, !dbg !2570

; <label>:279:                                    ; preds = %276
  %280 = call i8* @_Znwm(i64 40) #11, !dbg !2571
  %281 = bitcast i8* %280 to %class.GooString*, !dbg !2571
  call void @_ZN9GooStringC1EPKc(%class.GooString* %281, i8* getelementptr inbounds ([33 x i8], [33 x i8]* @_ZL12userPassword, i32 0, i32 0)), !dbg !2573
  store %class.GooString* %281, %class.GooString** %12, align 8, !dbg !2574
  br label %283, !dbg !2575

; <label>:282:                                    ; preds = %276
  store %class.GooString* null, %class.GooString** %12, align 8, !dbg !2576
  br label %283

; <label>:283:                                    ; preds = %282, %279
  %284 = call i8* @_Znwm(i64 40) #11, !dbg !2578
  %285 = bitcast i8* %284 to %class.GooString*, !dbg !2578
  %286 = load i8**, i8*** %5, align 8, !dbg !2579
  %287 = getelementptr inbounds i8*, i8** %286, i64 1, !dbg !2579
  %288 = load i8*, i8** %287, align 8, !dbg !2579
  call void @_ZN9GooStringC1EPKc(%class.GooString* %285, i8* %288), !dbg !2580
  store %class.GooString* %285, %class.GooString** %7, align 8, !dbg !2581
  %289 = load %class.GooString*, %class.GooString** %7, align 8, !dbg !2582
  %290 = call i32 @_ZNK9GooString3cmpEPKc(%class.GooString* %289, i8* getelementptr inbounds ([2 x i8], [2 x i8]* @.str.37, i32 0, i32 0)), !dbg !2584
  %291 = icmp eq i32 %290, 0, !dbg !2585
  br i1 %291, label %292, label %300, !dbg !2586

; <label>:292:                                    ; preds = %283
  %293 = load %class.GooString*, %class.GooString** %7, align 8, !dbg !2587
  %294 = icmp eq %class.GooString* %293, null, !dbg !2589
  br i1 %294, label %297, label %295, !dbg !2589

; <label>:295:                                    ; preds = %292
  call void @_ZN9GooStringD1Ev(%class.GooString* %293), !dbg !2589
  %296 = bitcast %class.GooString* %293 to i8*, !dbg !2589
  call void @_ZdlPv(i8* %296) #14, !dbg !2589
  br label %297, !dbg !2589

; <label>:297:                                    ; preds = %295, %292
  %298 = call i8* @_Znwm(i64 40) #11, !dbg !2590
  %299 = bitcast i8* %298 to %class.GooString*, !dbg !2590
  call void @_ZN9GooStringC1EPKc(%class.GooString* %299, i8* getelementptr inbounds ([7 x i8], [7 x i8]* @.str, i32 0, i32 0)), !dbg !2591
  store %class.GooString* %299, %class.GooString** %7, align 8, !dbg !2592
  br label %300, !dbg !2593

; <label>:300:                                    ; preds = %297, %283
  %301 = load i32, i32* %4, align 4, !dbg !2594
  %302 = icmp eq i32 %301, 3, !dbg !2596
  br i1 %302, label %303, label %309, !dbg !2597

; <label>:303:                                    ; preds = %300
  %304 = call i8* @_Znwm(i64 40) #11, !dbg !2598
  %305 = bitcast i8* %304 to %class.GooString*, !dbg !2598
  %306 = load i8**, i8*** %5, align 8, !dbg !2599
  %307 = getelementptr inbounds i8*, i8** %306, i64 2, !dbg !2599
  %308 = load i8*, i8** %307, align 8, !dbg !2599
  call void @_ZN9GooStringC1EPKc(%class.GooString* %305, i8* %308), !dbg !2600
  store %class.GooString* %305, %class.GooString** %8, align 8, !dbg !2601
  br label %310, !dbg !2602

; <label>:309:                                    ; preds = %300
  store %class.GooString* null, %class.GooString** %8, align 8, !dbg !2603
  br label %310

; <label>:310:                                    ; preds = %309, %303
  %311 = load %class.GooString*, %class.GooString** %7, align 8, !dbg !2604
  %312 = load %class.GooString*, %class.GooString** %8, align 8, !dbg !2605
  %313 = call %class.GooString* @_ZL17getOutputFileNameP9GooStringS0_(%class.GooString* %311, %class.GooString* %312), !dbg !2606
  store %class.GooString* %313, %class.GooString** %9, align 8, !dbg !2607
  call void @_ZN13PDFDocFactoryC1EP7GooList(%class.PDFDocFactory* %22, %class.GooList* null), !dbg !2608
  %314 = load %class.GooString*, %class.GooString** %7, align 8, !dbg !2609
  %315 = load %class.GooString*, %class.GooString** %11, align 8, !dbg !2610
  %316 = load %class.GooString*, %class.GooString** %12, align 8, !dbg !2611
  %317 = call %class.PDFDoc* @_ZN13PDFDocFactory12createPDFDocERK9GooStringPS0_S3_Pv(%class.PDFDocFactory* %22, %class.GooString* dereferenceable(40) %314, %class.GooString* %315, %class.GooString* %316, i8* null), !dbg !2612
  store %class.PDFDoc* %317, %class.PDFDoc** %6, align 8, !dbg !2613
  call void @_ZN13PDFDocFactoryD1Ev(%class.PDFDocFactory* %22), !dbg !2614
  %318 = load %class.PDFDoc*, %class.PDFDoc** %6, align 8, !dbg !2615
  %319 = call zeroext i1 @_ZN6PDFDoc4isOkEv(%class.PDFDoc* %318), !dbg !2617
  br i1 %319, label %323, label %320, !dbg !2618

; <label>:320:                                    ; preds = %310
  %321 = load %struct._IO_FILE*, %struct._IO_FILE** @stderr, align 8, !dbg !2619
  %322 = call i32 (%struct._IO_FILE*, i8*, ...) @fprintf(%struct._IO_FILE* %321, i8* getelementptr inbounds ([25 x i8], [25 x i8]* @.str.38, i32 0, i32 0)), !dbg !2621
  call void @exit(i32 1) #12, !dbg !2622
  unreachable, !dbg !2622

; <label>:323:                                    ; preds = %310
  %324 = load i32, i32* @_ZL9firstPage, align 4, !dbg !2623
  %325 = icmp slt i32 %324, 1, !dbg !2625
  br i1 %325, label %326, label %327, !dbg !2626

; <label>:326:                                    ; preds = %323
  store i32 1, i32* @_ZL9firstPage, align 4, !dbg !2627
  br label %327, !dbg !2628

; <label>:327:                                    ; preds = %326, %323
  %328 = load i8, i8* @_ZL10singleFile, align 1, !dbg !2629
  %329 = trunc i8 %328 to i1, !dbg !2629
  br i1 %329, label %330, label %335, !dbg !2631

; <label>:330:                                    ; preds = %327
  %331 = load i32, i32* @_ZL8lastPage, align 4, !dbg !2632
  %332 = icmp slt i32 %331, 1, !dbg !2633
  br i1 %332, label %333, label %335, !dbg !2634

; <label>:333:                                    ; preds = %330
  %334 = load i32, i32* @_ZL9firstPage, align 4, !dbg !2635
  store i32 %334, i32* @_ZL8lastPage, align 4, !dbg !2636
  br label %335, !dbg !2637

; <label>:335:                                    ; preds = %333, %330, %327
  %336 = load i32, i32* @_ZL8lastPage, align 4, !dbg !2638
  %337 = icmp slt i32 %336, 1, !dbg !2640
  br i1 %337, label %343, label %338, !dbg !2641

; <label>:338:                                    ; preds = %335
  %339 = load i32, i32* @_ZL8lastPage, align 4, !dbg !2642
  %340 = load %class.PDFDoc*, %class.PDFDoc** %6, align 8, !dbg !2643
  %341 = call i32 @_ZN6PDFDoc11getNumPagesEv(%class.PDFDoc* %340), !dbg !2644
  %342 = icmp sgt i32 %339, %341, !dbg !2645
  br i1 %342, label %343, label %346, !dbg !2646

; <label>:343:                                    ; preds = %338, %335
  %344 = load %class.PDFDoc*, %class.PDFDoc** %6, align 8, !dbg !2647
  %345 = call i32 @_ZN6PDFDoc11getNumPagesEv(%class.PDFDoc* %344), !dbg !2648
  store i32 %345, i32* @_ZL8lastPage, align 4, !dbg !2649
  br label %346, !dbg !2650

; <label>:346:                                    ; preds = %343, %338
  %347 = load i8, i8* @_ZL3eps, align 1, !dbg !2651
  %348 = trunc i8 %347 to i1, !dbg !2651
  br i1 %348, label %349, label %356, !dbg !2653

; <label>:349:                                    ; preds = %346
  %350 = load i32, i32* @_ZL9firstPage, align 4, !dbg !2654
  %351 = load i32, i32* @_ZL8lastPage, align 4, !dbg !2655
  %352 = icmp ne i32 %350, %351, !dbg !2656
  br i1 %352, label %353, label %356, !dbg !2657

; <label>:353:                                    ; preds = %349
  %354 = load %struct._IO_FILE*, %struct._IO_FILE** @stderr, align 8, !dbg !2658
  %355 = call i32 (%struct._IO_FILE*, i8*, ...) @fprintf(%struct._IO_FILE* %354, i8* getelementptr inbounds ([38 x i8], [38 x i8]* @.str.39, i32 0, i32 0)), !dbg !2660
  call void @exit(i32 99) #12, !dbg !2661
  unreachable, !dbg !2661

; <label>:356:                                    ; preds = %349, %346
  %357 = load i8, i8* @_ZL10singleFile, align 1, !dbg !2662
  %358 = trunc i8 %357 to i1, !dbg !2662
  br i1 %358, label %359, label %375, !dbg !2664

; <label>:359:                                    ; preds = %356
  %360 = load i32, i32* @_ZL9firstPage, align 4, !dbg !2665
  %361 = load i32, i32* @_ZL8lastPage, align 4, !dbg !2666
  %362 = icmp slt i32 %360, %361, !dbg !2667
  br i1 %362, label %363, label %375, !dbg !2668

; <label>:363:                                    ; preds = %359
  %364 = load i8, i8* @_ZL5quiet, align 1, !dbg !2669
  %365 = trunc i8 %364 to i1, !dbg !2669
  br i1 %365, label %373, label %366, !dbg !2672

; <label>:366:                                    ; preds = %363
  %367 = load %struct._IO_FILE*, %struct._IO_FILE** @stderr, align 8, !dbg !2673
  %368 = load i32, i32* @_ZL8lastPage, align 4, !dbg !2675
  %369 = add nsw i32 %368, 1, !dbg !2676
  %370 = load i32, i32* @_ZL9firstPage, align 4, !dbg !2677
  %371 = sub nsw i32 %369, %370, !dbg !2678
  %372 = call i32 (%struct._IO_FILE*, i8*, ...) @fprintf(%struct._IO_FILE* %367, i8* getelementptr inbounds ([65 x i8], [65 x i8]* @.str.40, i32 0, i32 0), i32 %371), !dbg !2679
  br label %373, !dbg !2680

; <label>:373:                                    ; preds = %366, %363
  %374 = load i32, i32* @_ZL9firstPage, align 4, !dbg !2681
  store i32 %374, i32* @_ZL8lastPage, align 4, !dbg !2682
  br label %375, !dbg !2683

; <label>:375:                                    ; preds = %373, %359, %356
  %376 = load i8, i8* @_ZL13printOnlyEven, align 1, !dbg !2684
  %377 = trunc i8 %376 to i1, !dbg !2684
  br i1 %377, label %378, label %382, !dbg !2686

; <label>:378:                                    ; preds = %375
  %379 = load i32, i32* @_ZL9firstPage, align 4, !dbg !2687
  %380 = srem i32 %379, 2, !dbg !2688
  %381 = icmp eq i32 %380, 0, !dbg !2689
  br i1 %381, label %389, label %382, !dbg !2690

; <label>:382:                                    ; preds = %378, %375
  %383 = load i8, i8* @_ZL12printOnlyOdd, align 1, !dbg !2691
  %384 = trunc i8 %383 to i1, !dbg !2691
  br i1 %384, label %385, label %392, !dbg !2692

; <label>:385:                                    ; preds = %382
  %386 = load i32, i32* @_ZL9firstPage, align 4, !dbg !2693
  %387 = srem i32 %386, 2, !dbg !2694
  %388 = icmp eq i32 %387, 1, !dbg !2695
  br i1 %388, label %389, label %392, !dbg !2696

; <label>:389:                                    ; preds = %385, %378
  %390 = load i32, i32* @_ZL9firstPage, align 4, !dbg !2697
  %391 = add nsw i32 %390, 1, !dbg !2697
  store i32 %391, i32* @_ZL9firstPage, align 4, !dbg !2697
  br label %392, !dbg !2698

; <label>:392:                                    ; preds = %389, %385, %382
  %393 = call i8* @_Znwm(i64 544) #11, !dbg !2699
  %394 = bitcast i8* %393 to %class.CairoOutputDev*, !dbg !2699
  call void @_ZN14CairoOutputDevC1Ev(%class.CairoOutputDev* %394), !dbg !2700
  store %class.CairoOutputDev* %394, %class.CairoOutputDev** %13, align 8, !dbg !2701
  %395 = load %class.CairoOutputDev*, %class.CairoOutputDev** %13, align 8, !dbg !2702
  %396 = load %class.PDFDoc*, %class.PDFDoc** %6, align 8, !dbg !2703
  call void @_ZN14CairoOutputDev8startDocEP6PDFDocP15CairoFontEngine(%class.CairoOutputDev* %395, %class.PDFDoc* %396, %class.CairoFontEngine* null), !dbg !2704
  %397 = load i32, i32* @_ZL2sz, align 4, !dbg !2705
  %398 = icmp ne i32 %397, 0, !dbg !2707
  br i1 %398, label %399, label %401, !dbg !2708

; <label>:399:                                    ; preds = %392
  %400 = load i32, i32* @_ZL2sz, align 4, !dbg !2709
  store i32 %400, i32* @_ZL6crop_h, align 4, !dbg !2710
  store i32 %400, i32* @_ZL6crop_w, align 4, !dbg !2711
  br label %401, !dbg !2712

; <label>:401:                                    ; preds = %399, %392
  %402 = load %class.PDFDoc*, %class.PDFDoc** %6, align 8, !dbg !2713
  %403 = call i32 @_ZN6PDFDoc11getNumPagesEv(%class.PDFDoc* %402), !dbg !2714
  %404 = call i32 @_ZL18numberOfCharactersj(i32 %403), !dbg !2715
  store i32 %404, i32* %15, align 4, !dbg !2716
  %405 = load i32, i32* @_ZL9firstPage, align 4, !dbg !2717
  store i32 %405, i32* %14, align 4, !dbg !2719
  br label %406, !dbg !2720

; <label>:406:                                    ; preds = %563, %401
  %407 = load i32, i32* %14, align 4, !dbg !2721
  %408 = load i32, i32* @_ZL8lastPage, align 4, !dbg !2723
  %409 = icmp sle i32 %407, %408, !dbg !2724
  br i1 %409, label %410, label %566, !dbg !2725

; <label>:410:                                    ; preds = %406
  %411 = load i8, i8* @_ZL13printOnlyEven, align 1, !dbg !2726
  %412 = trunc i8 %411 to i1, !dbg !2726
  br i1 %412, label %413, label %418, !dbg !2729

; <label>:413:                                    ; preds = %410
  %414 = load i32, i32* %14, align 4, !dbg !2730
  %415 = srem i32 %414, 2, !dbg !2731
  %416 = icmp eq i32 %415, 0, !dbg !2732
  br i1 %416, label %417, label %418, !dbg !2733

; <label>:417:                                    ; preds = %413
  br label %563, !dbg !2734

; <label>:418:                                    ; preds = %413, %410
  %419 = load i8, i8* @_ZL12printOnlyOdd, align 1, !dbg !2735
  %420 = trunc i8 %419 to i1, !dbg !2735
  br i1 %420, label %421, label %426, !dbg !2737

; <label>:421:                                    ; preds = %418
  %422 = load i32, i32* %14, align 4, !dbg !2738
  %423 = srem i32 %422, 2, !dbg !2739
  %424 = icmp eq i32 %423, 1, !dbg !2740
  br i1 %424, label %425, label %426, !dbg !2741

; <label>:425:                                    ; preds = %421
  br label %563, !dbg !2742

; <label>:426:                                    ; preds = %421, %418
  %427 = load i8, i8* @_ZL10useCropBox, align 1, !dbg !2743
  %428 = trunc i8 %427 to i1, !dbg !2743
  br i1 %428, label %429, label %436, !dbg !2745

; <label>:429:                                    ; preds = %426
  %430 = load %class.PDFDoc*, %class.PDFDoc** %6, align 8, !dbg !2746
  %431 = load i32, i32* %14, align 4, !dbg !2748
  %432 = call double @_ZN6PDFDoc16getPageCropWidthEi(%class.PDFDoc* %430, i32 %431), !dbg !2749
  store double %432, double* %16, align 8, !dbg !2750
  %433 = load %class.PDFDoc*, %class.PDFDoc** %6, align 8, !dbg !2751
  %434 = load i32, i32* %14, align 4, !dbg !2752
  %435 = call double @_ZN6PDFDoc17getPageCropHeightEi(%class.PDFDoc* %433, i32 %434), !dbg !2753
  store double %435, double* %17, align 8, !dbg !2754
  br label %443, !dbg !2755

; <label>:436:                                    ; preds = %426
  %437 = load %class.PDFDoc*, %class.PDFDoc** %6, align 8, !dbg !2756
  %438 = load i32, i32* %14, align 4, !dbg !2758
  %439 = call double @_ZN6PDFDoc17getPageMediaWidthEi(%class.PDFDoc* %437, i32 %438), !dbg !2759
  store double %439, double* %16, align 8, !dbg !2760
  %440 = load %class.PDFDoc*, %class.PDFDoc** %6, align 8, !dbg !2761
  %441 = load i32, i32* %14, align 4, !dbg !2762
  %442 = call double @_ZN6PDFDoc18getPageMediaHeightEi(%class.PDFDoc* %440, i32 %441), !dbg !2763
  store double %442, double* %17, align 8, !dbg !2764
  br label %443

; <label>:443:                                    ; preds = %436, %429
  %444 = load i8, i8* @_ZL8printing, align 1, !dbg !2765
  %445 = trunc i8 %444 to i1, !dbg !2765
  br i1 %445, label %446, label %464, !dbg !2767

; <label>:446:                                    ; preds = %443
  %447 = load i32, i32* %14, align 4, !dbg !2768
  %448 = load i32, i32* @_ZL9firstPage, align 4, !dbg !2769
  %449 = icmp eq i32 %447, %448, !dbg !2770
  br i1 %449, label %450, label %464, !dbg !2771

; <label>:450:                                    ; preds = %446
  %451 = load i32, i32* @_ZL10paperWidth, align 4, !dbg !2772
  %452 = icmp slt i32 %451, 0, !dbg !2775
  br i1 %452, label %456, label %453, !dbg !2776

; <label>:453:                                    ; preds = %450
  %454 = load i32, i32* @_ZL11paperHeight, align 4, !dbg !2777
  %455 = icmp slt i32 %454, 0, !dbg !2778
  br i1 %455, label %456, label %463, !dbg !2779

; <label>:456:                                    ; preds = %453, %450
  %457 = load double, double* %16, align 8, !dbg !2780
  %458 = call double @llvm.ceil.f64(double %457), !dbg !2782
  %459 = fptosi double %458 to i32, !dbg !2782
  store i32 %459, i32* @_ZL10paperWidth, align 4, !dbg !2783
  %460 = load double, double* %17, align 8, !dbg !2784
  %461 = call double @llvm.ceil.f64(double %460), !dbg !2785
  %462 = fptosi double %461 to i32, !dbg !2785
  store i32 %462, i32* @_ZL11paperHeight, align 4, !dbg !2786
  br label %463, !dbg !2787

; <label>:463:                                    ; preds = %456, %453
  br label %464, !dbg !2788

; <label>:464:                                    ; preds = %463, %446, %443
  %465 = load i32, i32* @_ZL7scaleTo, align 4, !dbg !2789
  %466 = icmp ne i32 %465, 0, !dbg !2791
  br i1 %466, label %467, label %482, !dbg !2792

; <label>:467:                                    ; preds = %464
  %468 = load i32, i32* @_ZL7scaleTo, align 4, !dbg !2793
  %469 = sitofp i32 %468 to double, !dbg !2793
  %470 = fmul double 7.200000e+01, %469, !dbg !2795
  %471 = load double, double* %16, align 8, !dbg !2796
  %472 = load double, double* %17, align 8, !dbg !2797
  %473 = fcmp ogt double %471, %472, !dbg !2798
  br i1 %473, label %474, label %476, !dbg !2796

; <label>:474:                                    ; preds = %467
  %475 = load double, double* %16, align 8, !dbg !2799
  br label %478, !dbg !2796

; <label>:476:                                    ; preds = %467
  %477 = load double, double* %17, align 8, !dbg !2800
  br label %478, !dbg !2796

; <label>:478:                                    ; preds = %476, %474
  %479 = phi double [ %475, %474 ], [ %477, %476 ], !dbg !2796
  %480 = fdiv double %470, %479, !dbg !2801
  store double %480, double* @_ZL10resolution, align 8, !dbg !2802
  %481 = load double, double* @_ZL10resolution, align 8, !dbg !2803
  store double %481, double* @_ZL12y_resolution, align 8, !dbg !2804
  store double %481, double* @_ZL12x_resolution, align 8, !dbg !2805
  br label %511, !dbg !2806

; <label>:482:                                    ; preds = %464
  %483 = load i32, i32* @_ZL9x_scaleTo, align 4, !dbg !2807
  %484 = icmp sgt i32 %483, 0, !dbg !2810
  br i1 %484, label %485, label %496, !dbg !2811

; <label>:485:                                    ; preds = %482
  %486 = load i32, i32* @_ZL9x_scaleTo, align 4, !dbg !2812
  %487 = sitofp i32 %486 to double, !dbg !2812
  %488 = fmul double 7.200000e+01, %487, !dbg !2814
  %489 = load double, double* %16, align 8, !dbg !2815
  %490 = fdiv double %488, %489, !dbg !2816
  store double %490, double* @_ZL12x_resolution, align 8, !dbg !2817
  %491 = load i32, i32* @_ZL9y_scaleTo, align 4, !dbg !2818
  %492 = icmp eq i32 %491, -1, !dbg !2820
  br i1 %492, label %493, label %495, !dbg !2821

; <label>:493:                                    ; preds = %485
  %494 = load double, double* @_ZL12x_resolution, align 8, !dbg !2822
  store double %494, double* @_ZL12y_resolution, align 8, !dbg !2823
  br label %495, !dbg !2824

; <label>:495:                                    ; preds = %493, %485
  br label %496, !dbg !2825

; <label>:496:                                    ; preds = %495, %482
  %497 = load i32, i32* @_ZL9y_scaleTo, align 4, !dbg !2826
  %498 = icmp sgt i32 %497, 0, !dbg !2828
  br i1 %498, label %499, label %510, !dbg !2829

; <label>:499:                                    ; preds = %496
  %500 = load i32, i32* @_ZL9y_scaleTo, align 4, !dbg !2830
  %501 = sitofp i32 %500 to double, !dbg !2830
  %502 = fmul double 7.200000e+01, %501, !dbg !2832
  %503 = load double, double* %17, align 8, !dbg !2833
  %504 = fdiv double %502, %503, !dbg !2834
  store double %504, double* @_ZL12y_resolution, align 8, !dbg !2835
  %505 = load i32, i32* @_ZL9x_scaleTo, align 4, !dbg !2836
  %506 = icmp eq i32 %505, -1, !dbg !2838
  br i1 %506, label %507, label %509, !dbg !2839

; <label>:507:                                    ; preds = %499
  %508 = load double, double* @_ZL12y_resolution, align 8, !dbg !2840
  store double %508, double* @_ZL12x_resolution, align 8, !dbg !2841
  br label %509, !dbg !2842

; <label>:509:                                    ; preds = %507, %499
  br label %510, !dbg !2843

; <label>:510:                                    ; preds = %509, %496
  br label %511

; <label>:511:                                    ; preds = %510, %478
  %512 = load %class.PDFDoc*, %class.PDFDoc** %6, align 8, !dbg !2844
  %513 = load i32, i32* %14, align 4, !dbg !2846
  %514 = call i32 @_ZN6PDFDoc13getPageRotateEi(%class.PDFDoc* %512, i32 %513), !dbg !2847
  %515 = icmp eq i32 %514, 90, !dbg !2848
  br i1 %515, label %521, label %516, !dbg !2849

; <label>:516:                                    ; preds = %511
  %517 = load %class.PDFDoc*, %class.PDFDoc** %6, align 8, !dbg !2850
  %518 = load i32, i32* %14, align 4, !dbg !2851
  %519 = call i32 @_ZN6PDFDoc13getPageRotateEi(%class.PDFDoc* %517, i32 %518), !dbg !2852
  %520 = icmp eq i32 %519, 270, !dbg !2853
  br i1 %520, label %521, label %525, !dbg !2854

; <label>:521:                                    ; preds = %516, %511
  %522 = load double, double* %16, align 8, !dbg !2855
  store double %522, double* %18, align 8, !dbg !2857
  %523 = load double, double* %17, align 8, !dbg !2858
  store double %523, double* %16, align 8, !dbg !2859
  %524 = load double, double* %18, align 8, !dbg !2860
  store double %524, double* %17, align 8, !dbg !2861
  br label %525, !dbg !2862

; <label>:525:                                    ; preds = %521, %516
  %526 = load %class.GooString*, %class.GooString** %10, align 8, !dbg !2863
  %527 = icmp ne %class.GooString* %526, null, !dbg !2863
  br i1 %527, label %528, label %534, !dbg !2865

; <label>:528:                                    ; preds = %525
  %529 = load %class.GooString*, %class.GooString** %10, align 8, !dbg !2866
  %530 = icmp eq %class.GooString* %529, null, !dbg !2868
  br i1 %530, label %533, label %531, !dbg !2868

; <label>:531:                                    ; preds = %528
  call void @_ZN9GooStringD1Ev(%class.GooString* %529), !dbg !2868
  %532 = bitcast %class.GooString* %529 to i8*, !dbg !2868
  call void @_ZdlPv(i8* %532) #14, !dbg !2868
  br label %533, !dbg !2868

; <label>:533:                                    ; preds = %531, %528
  store %class.GooString* null, %class.GooString** %10, align 8, !dbg !2869
  br label %534, !dbg !2870

; <label>:534:                                    ; preds = %533, %525
  %535 = load i8, i8* @_ZL8printing, align 1, !dbg !2871
  %536 = trunc i8 %535 to i1, !dbg !2871
  br i1 %536, label %542, label %537, !dbg !2873

; <label>:537:                                    ; preds = %534
  %538 = load %class.GooString*, %class.GooString** %9, align 8, !dbg !2874
  %539 = load i32, i32* %15, align 4, !dbg !2875
  %540 = load i32, i32* %14, align 4, !dbg !2876
  %541 = call %class.GooString* @_ZL16getImageFileNameP9GooStringii(%class.GooString* %538, i32 %539, i32 %540), !dbg !2877
  store %class.GooString* %541, %class.GooString** %10, align 8, !dbg !2878
  br label %542, !dbg !2879

; <label>:542:                                    ; preds = %537, %534
  %543 = load double, double* %16, align 8, !dbg !2880
  %544 = load double, double* %17, align 8, !dbg !2881
  call void @_ZL13getOutputSizeddPdS_(double %543, double %544, double* %19, double* %20), !dbg !2882
  %545 = load i32, i32* %14, align 4, !dbg !2883
  %546 = load i32, i32* @_ZL9firstPage, align 4, !dbg !2885
  %547 = icmp eq i32 %545, %546, !dbg !2886
  br i1 %547, label %548, label %552, !dbg !2887

; <label>:548:                                    ; preds = %542
  %549 = load %class.GooString*, %class.GooString** %9, align 8, !dbg !2888
  %550 = load double, double* %19, align 8, !dbg !2889
  %551 = load double, double* %20, align 8, !dbg !2890
  call void @_ZL13beginDocumentP9GooStringdd(%class.GooString* %549, double %550, double %551), !dbg !2891
  br label %552, !dbg !2891

; <label>:552:                                    ; preds = %548, %542
  %553 = load double, double* %19, align 8, !dbg !2892
  %554 = load double, double* %20, align 8, !dbg !2893
  call void @_ZL9beginPagedd(double %553, double %554), !dbg !2894
  %555 = load %class.PDFDoc*, %class.PDFDoc** %6, align 8, !dbg !2895
  %556 = load %class.CairoOutputDev*, %class.CairoOutputDev** %13, align 8, !dbg !2896
  %557 = load i32, i32* %14, align 4, !dbg !2897
  %558 = load double, double* %16, align 8, !dbg !2898
  %559 = load double, double* %17, align 8, !dbg !2899
  %560 = load double, double* %19, align 8, !dbg !2900
  %561 = load double, double* %20, align 8, !dbg !2901
  call void @_ZL10renderPageP6PDFDocP14CairoOutputDevidddd(%class.PDFDoc* %555, %class.CairoOutputDev* %556, i32 %557, double %558, double %559, double %560, double %561), !dbg !2902
  %562 = load %class.GooString*, %class.GooString** %10, align 8, !dbg !2903
  call void @_ZL7endPageP9GooString(%class.GooString* %562), !dbg !2904
  br label %563, !dbg !2905

; <label>:563:                                    ; preds = %552, %425, %417
  %564 = load i32, i32* %14, align 4, !dbg !2906
  %565 = add nsw i32 %564, 1, !dbg !2906
  store i32 %565, i32* %14, align 4, !dbg !2906
  br label %406, !dbg !2907, !llvm.loop !2908

; <label>:566:                                    ; preds = %406
  call void @_ZL11endDocumentv(), !dbg !2910
  %567 = load %class.CairoOutputDev*, %class.CairoOutputDev** %13, align 8, !dbg !2911
  %568 = icmp eq %class.CairoOutputDev* %567, null, !dbg !2912
  br i1 %568, label %574, label %569, !dbg !2912

; <label>:569:                                    ; preds = %566
  %570 = bitcast %class.CairoOutputDev* %567 to void (%class.CairoOutputDev*)***, !dbg !2912
  %571 = load void (%class.CairoOutputDev*)**, void (%class.CairoOutputDev*)*** %570, align 8, !dbg !2912
  %572 = getelementptr inbounds void (%class.CairoOutputDev*)*, void (%class.CairoOutputDev*)** %571, i64 1, !dbg !2912
  %573 = load void (%class.CairoOutputDev*)*, void (%class.CairoOutputDev*)** %572, align 8, !dbg !2912
  call void %573(%class.CairoOutputDev* %567), !dbg !2912
  br label %574, !dbg !2912

; <label>:574:                                    ; preds = %569, %566
  %575 = load %class.PDFDoc*, %class.PDFDoc** %6, align 8, !dbg !2913
  %576 = icmp eq %class.PDFDoc* %575, null, !dbg !2914
  br i1 %576, label %579, label %577, !dbg !2914

; <label>:577:                                    ; preds = %574
  call void @_ZN6PDFDocD1Ev(%class.PDFDoc* %575), !dbg !2914
  %578 = bitcast %class.PDFDoc* %575 to i8*, !dbg !2914
  call void @_ZdlPv(i8* %578) #14, !dbg !2914
  br label %579, !dbg !2914

; <label>:579:                                    ; preds = %577, %574
  %580 = load %class.GlobalParams*, %class.GlobalParams** @globalParams, align 8, !dbg !2915
  %581 = icmp eq %class.GlobalParams* %580, null, !dbg !2916
  br i1 %581, label %584, label %582, !dbg !2916

; <label>:582:                                    ; preds = %579
  call void @_ZN12GlobalParamsD1Ev(%class.GlobalParams* %580), !dbg !2916
  %583 = bitcast %class.GlobalParams* %580 to i8*, !dbg !2916
  call void @_ZdlPv(i8* %583) #14, !dbg !2916
  br label %584, !dbg !2916

; <label>:584:                                    ; preds = %582, %579
  %585 = load %class.GooString*, %class.GooString** %7, align 8, !dbg !2917
  %586 = icmp ne %class.GooString* %585, null, !dbg !2917
  br i1 %586, label %587, label %593, !dbg !2919

; <label>:587:                                    ; preds = %584
  %588 = load %class.GooString*, %class.GooString** %7, align 8, !dbg !2920
  %589 = icmp eq %class.GooString* %588, null, !dbg !2921
  br i1 %589, label %592, label %590, !dbg !2921

; <label>:590:                                    ; preds = %587
  call void @_ZN9GooStringD1Ev(%class.GooString* %588), !dbg !2921
  %591 = bitcast %class.GooString* %588 to i8*, !dbg !2921
  call void @_ZdlPv(i8* %591) #14, !dbg !2921
  br label %592, !dbg !2921

; <label>:592:                                    ; preds = %590, %587
  br label %593, !dbg !2921

; <label>:593:                                    ; preds = %592, %584
  %594 = load %class.GooString*, %class.GooString** %8, align 8, !dbg !2922
  %595 = icmp ne %class.GooString* %594, null, !dbg !2922
  br i1 %595, label %596, label %602, !dbg !2924

; <label>:596:                                    ; preds = %593
  %597 = load %class.GooString*, %class.GooString** %8, align 8, !dbg !2925
  %598 = icmp eq %class.GooString* %597, null, !dbg !2926
  br i1 %598, label %601, label %599, !dbg !2926

; <label>:599:                                    ; preds = %596
  call void @_ZN9GooStringD1Ev(%class.GooString* %597), !dbg !2926
  %600 = bitcast %class.GooString* %597 to i8*, !dbg !2926
  call void @_ZdlPv(i8* %600) #14, !dbg !2926
  br label %601, !dbg !2926

; <label>:601:                                    ; preds = %599, %596
  br label %602, !dbg !2926

; <label>:602:                                    ; preds = %601, %593
  %603 = load %class.GooString*, %class.GooString** %9, align 8, !dbg !2927
  %604 = icmp ne %class.GooString* %603, null, !dbg !2927
  br i1 %604, label %605, label %611, !dbg !2929

; <label>:605:                                    ; preds = %602
  %606 = load %class.GooString*, %class.GooString** %9, align 8, !dbg !2930
  %607 = icmp eq %class.GooString* %606, null, !dbg !2931
  br i1 %607, label %610, label %608, !dbg !2931

; <label>:608:                                    ; preds = %605
  call void @_ZN9GooStringD1Ev(%class.GooString* %606), !dbg !2931
  %609 = bitcast %class.GooString* %606 to i8*, !dbg !2931
  call void @_ZdlPv(i8* %609) #14, !dbg !2931
  br label %610, !dbg !2931

; <label>:610:                                    ; preds = %608, %605
  br label %611, !dbg !2931

; <label>:611:                                    ; preds = %610, %602
  %612 = load %class.GooString*, %class.GooString** %10, align 8, !dbg !2932
  %613 = icmp ne %class.GooString* %612, null, !dbg !2932
  br i1 %613, label %614, label %620, !dbg !2934

; <label>:614:                                    ; preds = %611
  %615 = load %class.GooString*, %class.GooString** %10, align 8, !dbg !2935
  %616 = icmp eq %class.GooString* %615, null, !dbg !2936
  br i1 %616, label %619, label %617, !dbg !2936

; <label>:617:                                    ; preds = %614
  call void @_ZN9GooStringD1Ev(%class.GooString* %615), !dbg !2936
  %618 = bitcast %class.GooString* %615 to i8*, !dbg !2936
  call void @_ZdlPv(i8* %618) #14, !dbg !2936
  br label %619, !dbg !2936

; <label>:619:                                    ; preds = %617, %614
  br label %620, !dbg !2936

; <label>:620:                                    ; preds = %619, %611
  %621 = load %class.GooString*, %class.GooString** %11, align 8, !dbg !2937
  %622 = icmp ne %class.GooString* %621, null, !dbg !2937
  br i1 %622, label %623, label %629, !dbg !2939

; <label>:623:                                    ; preds = %620
  %624 = load %class.GooString*, %class.GooString** %11, align 8, !dbg !2940
  %625 = icmp eq %class.GooString* %624, null, !dbg !2941
  br i1 %625, label %628, label %626, !dbg !2941

; <label>:626:                                    ; preds = %623
  call void @_ZN9GooStringD1Ev(%class.GooString* %624), !dbg !2941
  %627 = bitcast %class.GooString* %624 to i8*, !dbg !2941
  call void @_ZdlPv(i8* %627) #14, !dbg !2941
  br label %628, !dbg !2941

; <label>:628:                                    ; preds = %626, %623
  br label %629, !dbg !2941

; <label>:629:                                    ; preds = %628, %620
  %630 = load %class.GooString*, %class.GooString** %12, align 8, !dbg !2942
  %631 = icmp ne %class.GooString* %630, null, !dbg !2942
  br i1 %631, label %632, label %638, !dbg !2944

; <label>:632:                                    ; preds = %629
  %633 = load %class.GooString*, %class.GooString** %11, align 8, !dbg !2945
  %634 = icmp eq %class.GooString* %633, null, !dbg !2946
  br i1 %634, label %637, label %635, !dbg !2946

; <label>:635:                                    ; preds = %632
  call void @_ZN9GooStringD1Ev(%class.GooString* %633), !dbg !2946
  %636 = bitcast %class.GooString* %633 to i8*, !dbg !2946
  call void @_ZdlPv(i8* %636) #14, !dbg !2946
  br label %637, !dbg !2946

; <label>:637:                                    ; preds = %635, %632
  br label %638, !dbg !2946

; <label>:638:                                    ; preds = %637, %629
  %639 = load %struct._IO_FILE*, %struct._IO_FILE** @stderr, align 8, !dbg !2947
  call void @_ZN6Object8memCheckEP8_IO_FILE(%struct._IO_FILE* %639), !dbg !2948
  ret i32 0, !dbg !2949
}

; Function Attrs: noinline nounwind optnone uwtable
define internal void @_ZL23checkInvalidPrintOptionbPKc(i1 zeroext, i8*) #3 !dbg !2950 {
  %3 = alloca i8, align 1
  %4 = alloca i8*, align 8
  %5 = zext i1 %0 to i8
  store i8 %5, i8* %3, align 1
  call void @llvm.dbg.declare(metadata i8* %3, metadata !2953, metadata !DIExpression()), !dbg !2954
  store i8* %1, i8** %4, align 8
  call void @llvm.dbg.declare(metadata i8** %4, metadata !2955, metadata !DIExpression()), !dbg !2956
  %6 = load i8, i8* %3, align 1, !dbg !2957
  %7 = trunc i8 %6 to i1, !dbg !2957
  br i1 %7, label %8, label %12, !dbg !2959

; <label>:8:                                      ; preds = %2
  %9 = load %struct._IO_FILE*, %struct._IO_FILE** @stderr, align 8, !dbg !2960
  %10 = load i8*, i8** %4, align 8, !dbg !2962
  %11 = call i32 (%struct._IO_FILE*, i8*, ...) @fprintf(%struct._IO_FILE* %9, i8* getelementptr inbounds ([75 x i8], [75 x i8]* @.str.113, i32 0, i32 0), i8* %10), !dbg !2963
  call void @exit(i32 99) #12, !dbg !2964
  unreachable, !dbg !2964

; <label>:12:                                     ; preds = %2
  ret void, !dbg !2965
}

; Function Attrs: noinline nounwind optnone uwtable
define internal void @_ZL23checkInvalidImageOptionbPKc(i1 zeroext, i8*) #3 !dbg !2966 {
  %3 = alloca i8, align 1
  %4 = alloca i8*, align 8
  %5 = zext i1 %0 to i8
  store i8 %5, i8* %3, align 1
  call void @llvm.dbg.declare(metadata i8* %3, metadata !2967, metadata !DIExpression()), !dbg !2968
  store i8* %1, i8** %4, align 8
  call void @llvm.dbg.declare(metadata i8** %4, metadata !2969, metadata !DIExpression()), !dbg !2970
  %6 = load i8, i8* %3, align 1, !dbg !2971
  %7 = trunc i8 %6 to i1, !dbg !2971
  br i1 %7, label %8, label %12, !dbg !2973

; <label>:8:                                      ; preds = %2
  %9 = load %struct._IO_FILE*, %struct._IO_FILE** @stderr, align 8, !dbg !2974
  %10 = load i8*, i8** %4, align 8, !dbg !2976
  %11 = call i32 (%struct._IO_FILE*, i8*, ...) @fprintf(%struct._IO_FILE* %9, i8* getelementptr inbounds ([78 x i8], [78 x i8]* @.str.114, i32 0, i32 0), i8* %10), !dbg !2977
  call void @exit(i32 99) #12, !dbg !2978
  unreachable, !dbg !2978

; <label>:12:                                     ; preds = %2
  ret void, !dbg !2979
}

; Function Attrs: nounwind readonly
declare i64 @strlen(i8*) #8

; Function Attrs: noinline nounwind optnone uwtable
define internal zeroext i1 @_ZL14setPSPaperSizePcRiS0_(i8*, i32* dereferenceable(4), i32* dereferenceable(4)) #3 !dbg !2980 {
  %4 = alloca i1, align 1
  %5 = alloca i8*, align 8
  %6 = alloca i32*, align 8
  %7 = alloca i32*, align 8
  store i8* %0, i8** %5, align 8
  call void @llvm.dbg.declare(metadata i8** %5, metadata !2984, metadata !DIExpression()), !dbg !2985
  store i32* %1, i32** %6, align 8
  call void @llvm.dbg.declare(metadata i32** %6, metadata !2986, metadata !DIExpression()), !dbg !2987
  store i32* %2, i32** %7, align 8
  call void @llvm.dbg.declare(metadata i32** %7, metadata !2988, metadata !DIExpression()), !dbg !2989
  %8 = load i8*, i8** %5, align 8, !dbg !2990
  %9 = call i32 @strcmp(i8* %8, i8* getelementptr inbounds ([6 x i8], [6 x i8]* @.str.115, i32 0, i32 0)) #13, !dbg !2992
  %10 = icmp ne i32 %9, 0, !dbg !2992
  br i1 %10, label %14, label %11, !dbg !2993

; <label>:11:                                     ; preds = %3
  %12 = load i32*, i32** %7, align 8, !dbg !2994
  store i32 -1, i32* %12, align 4, !dbg !2996
  %13 = load i32*, i32** %6, align 8, !dbg !2997
  store i32 -1, i32* %13, align 4, !dbg !2998
  br label %47, !dbg !2999

; <label>:14:                                     ; preds = %3
  %15 = load i8*, i8** %5, align 8, !dbg !3000
  %16 = call i32 @strcmp(i8* %15, i8* getelementptr inbounds ([7 x i8], [7 x i8]* @.str.116, i32 0, i32 0)) #13, !dbg !3002
  %17 = icmp ne i32 %16, 0, !dbg !3002
  br i1 %17, label %21, label %18, !dbg !3003

; <label>:18:                                     ; preds = %14
  %19 = load i32*, i32** %6, align 8, !dbg !3004
  store i32 612, i32* %19, align 4, !dbg !3006
  %20 = load i32*, i32** %7, align 8, !dbg !3007
  store i32 792, i32* %20, align 4, !dbg !3008
  br label %46, !dbg !3009

; <label>:21:                                     ; preds = %14
  %22 = load i8*, i8** %5, align 8, !dbg !3010
  %23 = call i32 @strcmp(i8* %22, i8* getelementptr inbounds ([6 x i8], [6 x i8]* @.str.117, i32 0, i32 0)) #13, !dbg !3012
  %24 = icmp ne i32 %23, 0, !dbg !3012
  br i1 %24, label %28, label %25, !dbg !3013

; <label>:25:                                     ; preds = %21
  %26 = load i32*, i32** %6, align 8, !dbg !3014
  store i32 612, i32* %26, align 4, !dbg !3016
  %27 = load i32*, i32** %7, align 8, !dbg !3017
  store i32 1008, i32* %27, align 4, !dbg !3018
  br label %45, !dbg !3019

; <label>:28:                                     ; preds = %21
  %29 = load i8*, i8** %5, align 8, !dbg !3020
  %30 = call i32 @strcmp(i8* %29, i8* getelementptr inbounds ([3 x i8], [3 x i8]* @.str.118, i32 0, i32 0)) #13, !dbg !3022
  %31 = icmp ne i32 %30, 0, !dbg !3022
  br i1 %31, label %35, label %32, !dbg !3023

; <label>:32:                                     ; preds = %28
  %33 = load i32*, i32** %6, align 8, !dbg !3024
  store i32 595, i32* %33, align 4, !dbg !3026
  %34 = load i32*, i32** %7, align 8, !dbg !3027
  store i32 842, i32* %34, align 4, !dbg !3028
  br label %44, !dbg !3029

; <label>:35:                                     ; preds = %28
  %36 = load i8*, i8** %5, align 8, !dbg !3030
  %37 = call i32 @strcmp(i8* %36, i8* getelementptr inbounds ([3 x i8], [3 x i8]* @.str.119, i32 0, i32 0)) #13, !dbg !3032
  %38 = icmp ne i32 %37, 0, !dbg !3032
  br i1 %38, label %42, label %39, !dbg !3033

; <label>:39:                                     ; preds = %35
  %40 = load i32*, i32** %6, align 8, !dbg !3034
  store i32 842, i32* %40, align 4, !dbg !3036
  %41 = load i32*, i32** %7, align 8, !dbg !3037
  store i32 1190, i32* %41, align 4, !dbg !3038
  br label %43, !dbg !3039

; <label>:42:                                     ; preds = %35
  store i1 false, i1* %4, align 1, !dbg !3040
  br label %48, !dbg !3040

; <label>:43:                                     ; preds = %39
  br label %44

; <label>:44:                                     ; preds = %43, %32
  br label %45

; <label>:45:                                     ; preds = %44, %25
  br label %46

; <label>:46:                                     ; preds = %45, %18
  br label %47

; <label>:47:                                     ; preds = %46, %11
  store i1 true, i1* %4, align 1, !dbg !3042
  br label %48, !dbg !3042

; <label>:48:                                     ; preds = %47, %42
  %49 = load i1, i1* %4, align 1, !dbg !3043
  ret i1 %49, !dbg !3043
}

declare void @_ZN12GlobalParamsC1EPKc(%class.GlobalParams*, i8*) unnamed_addr #1

declare void @_ZN12GlobalParams11setErrQuietEb(%class.GlobalParams*, i1 zeroext) #1

declare void @_ZN9GooStringC1EPKc(%class.GooString*, i8*) unnamed_addr #1

; Function Attrs: nobuiltin nounwind
declare void @_ZdlPv(i8*) #9

; Function Attrs: noinline nounwind optnone uwtable
define internal %class.GooString* @_ZL17getOutputFileNameP9GooStringS0_(%class.GooString*, %class.GooString*) #3 !dbg !3044 {
  %3 = alloca %class.GooString*, align 8
  %4 = alloca %class.GooString*, align 8
  %5 = alloca %class.GooString*, align 8
  %6 = alloca %class.GooString*, align 8
  %7 = alloca i8*, align 8
  %8 = alloca i8*, align 8
  %9 = alloca %class.GooString*, align 8
  store %class.GooString* %0, %class.GooString** %4, align 8
  call void @llvm.dbg.declare(metadata %class.GooString** %4, metadata !3047, metadata !DIExpression()), !dbg !3048
  store %class.GooString* %1, %class.GooString** %5, align 8
  call void @llvm.dbg.declare(metadata %class.GooString** %5, metadata !3049, metadata !DIExpression()), !dbg !3050
  call void @llvm.dbg.declare(metadata %class.GooString** %6, metadata !3051, metadata !DIExpression()), !dbg !3052
  call void @llvm.dbg.declare(metadata i8** %7, metadata !3053, metadata !DIExpression()), !dbg !3054
  call void @llvm.dbg.declare(metadata i8** %8, metadata !3055, metadata !DIExpression()), !dbg !3056
  %10 = load %class.GooString*, %class.GooString** %5, align 8, !dbg !3057
  %11 = icmp ne %class.GooString* %10, null, !dbg !3057
  br i1 %11, label %12, label %32, !dbg !3059

; <label>:12:                                     ; preds = %2
  %13 = load %class.GooString*, %class.GooString** %5, align 8, !dbg !3060
  %14 = call i32 @_ZNK9GooString3cmpEPKc(%class.GooString* %13, i8* getelementptr inbounds ([2 x i8], [2 x i8]* @.str.37, i32 0, i32 0)), !dbg !3063
  %15 = icmp eq i32 %14, 0, !dbg !3064
  br i1 %15, label %16, label %28, !dbg !3065

; <label>:16:                                     ; preds = %12
  %17 = load i8, i8* @_ZL8printing, align 1, !dbg !3066
  %18 = trunc i8 %17 to i1, !dbg !3066
  br i1 %18, label %25, label %19, !dbg !3069

; <label>:19:                                     ; preds = %16
  %20 = load i8, i8* @_ZL10singleFile, align 1, !dbg !3070
  %21 = trunc i8 %20 to i1, !dbg !3070
  br i1 %21, label %25, label %22, !dbg !3071

; <label>:22:                                     ; preds = %19
  %23 = load %struct._IO_FILE*, %struct._IO_FILE** @stderr, align 8, !dbg !3072
  %24 = call i32 (%struct._IO_FILE*, i8*, ...) @fprintf(%struct._IO_FILE* %23, i8* getelementptr inbounds ([101 x i8], [101 x i8]* @.str.120, i32 0, i32 0)), !dbg !3074
  call void @exit(i32 99) #12, !dbg !3075
  unreachable, !dbg !3075

; <label>:25:                                     ; preds = %19, %16
  %26 = call i8* @_Znwm(i64 40) #11, !dbg !3076
  %27 = bitcast i8* %26 to %class.GooString*, !dbg !3076
  call void @_ZN9GooStringC1EPKc(%class.GooString* %27, i8* getelementptr inbounds ([7 x i8], [7 x i8]* @.str, i32 0, i32 0)), !dbg !3077
  store %class.GooString* %27, %class.GooString** %3, align 8, !dbg !3078
  br label %131, !dbg !3078

; <label>:28:                                     ; preds = %12
  %29 = call i8* @_Znwm(i64 40) #11, !dbg !3079
  %30 = bitcast i8* %29 to %class.GooString*, !dbg !3079
  %31 = load %class.GooString*, %class.GooString** %5, align 8, !dbg !3080
  call void @_ZN9GooStringC1EPKS_(%class.GooString* %30, %class.GooString* %31), !dbg !3081
  store %class.GooString* %30, %class.GooString** %3, align 8, !dbg !3082
  br label %131, !dbg !3082

; <label>:32:                                     ; preds = %2
  %33 = load %class.GooString*, %class.GooString** %4, align 8, !dbg !3083
  %34 = call i32 @_ZNK9GooString3cmpEPKc(%class.GooString* %33, i8* getelementptr inbounds ([7 x i8], [7 x i8]* @.str, i32 0, i32 0)), !dbg !3085
  %35 = icmp eq i32 %34, 0, !dbg !3086
  br i1 %35, label %36, label %39, !dbg !3087

; <label>:36:                                     ; preds = %32
  %37 = load %struct._IO_FILE*, %struct._IO_FILE** @stderr, align 8, !dbg !3088
  %38 = call i32 (%struct._IO_FILE*, i8*, ...) @fprintf(%struct._IO_FILE* %37, i8* getelementptr inbounds ([79 x i8], [79 x i8]* @.str.121, i32 0, i32 0)), !dbg !3090
  call void @exit(i32 99) #12, !dbg !3091
  unreachable, !dbg !3091

; <label>:39:                                     ; preds = %32
  %40 = load i8, i8* @_ZL3pdf, align 1, !dbg !3092
  %41 = trunc i8 %40 to i1, !dbg !3092
  br i1 %41, label %42, label %53, !dbg !3094

; <label>:42:                                     ; preds = %39
  %43 = load %class.GooString*, %class.GooString** %4, align 8, !dbg !3095
  %44 = call i32 @_ZNK9GooString4cmpNEPKci(%class.GooString* %43, i8* getelementptr inbounds ([8 x i8], [8 x i8]* @.str.122, i32 0, i32 0), i32 7), !dbg !3096
  %45 = icmp ne i32 %44, 0, !dbg !3097
  br i1 %45, label %46, label %53, !dbg !3098

; <label>:46:                                     ; preds = %42
  %47 = load %class.GooString*, %class.GooString** %4, align 8, !dbg !3099
  %48 = call i32 @_ZNK9GooString4cmpNEPKci(%class.GooString* %47, i8* getelementptr inbounds ([9 x i8], [9 x i8]* @.str.123, i32 0, i32 0), i32 8), !dbg !3100
  %49 = icmp ne i32 %48, 0, !dbg !3101
  br i1 %49, label %50, label %53, !dbg !3102

; <label>:50:                                     ; preds = %46
  %51 = load %struct._IO_FILE*, %struct._IO_FILE** @stderr, align 8, !dbg !3103
  %52 = call i32 (%struct._IO_FILE*, i8*, ...) @fprintf(%struct._IO_FILE* %51, i8* getelementptr inbounds ([117 x i8], [117 x i8]* @.str.124, i32 0, i32 0)), !dbg !3105
  call void @exit(i32 99) #12, !dbg !3106
  unreachable, !dbg !3106

; <label>:53:                                     ; preds = %46, %42, %39
  %54 = load %class.GooString*, %class.GooString** %4, align 8, !dbg !3107
  %55 = call i8* @_ZNK9GooString10getCStringEv(%class.GooString* %54), !dbg !3108
  store i8* %55, i8** %7, align 8, !dbg !3109
  %56 = load i8*, i8** %7, align 8, !dbg !3110
  %57 = call i8* @strrchr(i8* %56, i32 47) #13, !dbg !3111
  store i8* %57, i8** %8, align 8, !dbg !3112
  %58 = load i8*, i8** %8, align 8, !dbg !3113
  %59 = icmp ne i8* %58, null, !dbg !3113
  br i1 %59, label %60, label %74, !dbg !3115

; <label>:60:                                     ; preds = %53
  %61 = load i8*, i8** %8, align 8, !dbg !3116
  %62 = getelementptr inbounds i8, i8* %61, i32 1, !dbg !3116
  store i8* %62, i8** %8, align 8, !dbg !3116
  %63 = load i8*, i8** %8, align 8, !dbg !3118
  %64 = load i8, i8* %63, align 1, !dbg !3120
  %65 = sext i8 %64 to i32, !dbg !3120
  %66 = icmp eq i32 %65, 0, !dbg !3121
  br i1 %66, label %67, label %70, !dbg !3122

; <label>:67:                                     ; preds = %60
  %68 = load %struct._IO_FILE*, %struct._IO_FILE** @stderr, align 8, !dbg !3123
  %69 = call i32 (%struct._IO_FILE*, i8*, ...) @fprintf(%struct._IO_FILE* %68, i8* getelementptr inbounds ([33 x i8], [33 x i8]* @.str.125, i32 0, i32 0)), !dbg !3125
  call void @exit(i32 99) #12, !dbg !3126
  unreachable, !dbg !3126

; <label>:70:                                     ; preds = %60
  %71 = call i8* @_Znwm(i64 40) #11, !dbg !3127
  %72 = bitcast i8* %71 to %class.GooString*, !dbg !3127
  %73 = load i8*, i8** %8, align 8, !dbg !3128
  call void @_ZN9GooStringC1EPKc(%class.GooString* %72, i8* %73), !dbg !3129
  store %class.GooString* %72, %class.GooString** %6, align 8, !dbg !3130
  br label %78, !dbg !3131

; <label>:74:                                     ; preds = %53
  %75 = call i8* @_Znwm(i64 40) #11, !dbg !3132
  %76 = bitcast i8* %75 to %class.GooString*, !dbg !3132
  %77 = load i8*, i8** %7, align 8, !dbg !3134
  call void @_ZN9GooStringC1EPKc(%class.GooString* %76, i8* %77), !dbg !3135
  store %class.GooString* %76, %class.GooString** %6, align 8, !dbg !3136
  br label %78

; <label>:78:                                     ; preds = %74, %70
  %79 = load %class.GooString*, %class.GooString** %6, align 8, !dbg !3137
  %80 = call i8* @_ZNK9GooString10getCStringEv(%class.GooString* %79), !dbg !3138
  %81 = call i8* @strrchr(i8* %80, i32 46) #13, !dbg !3139
  store i8* %81, i8** %8, align 8, !dbg !3140
  %82 = load i8*, i8** %8, align 8, !dbg !3141
  %83 = icmp ne i8* %82, null, !dbg !3141
  br i1 %83, label %84, label %102, !dbg !3143

; <label>:84:                                     ; preds = %78
  %85 = load i8*, i8** %8, align 8, !dbg !3144
  %86 = call i32 @strcasecmp(i8* %85, i8* getelementptr inbounds ([5 x i8], [5 x i8]* @.str.126, i32 0, i32 0)) #13, !dbg !3145
  %87 = icmp eq i32 %86, 0, !dbg !3146
  br i1 %87, label %88, label %102, !dbg !3147

; <label>:88:                                     ; preds = %84
  call void @llvm.dbg.declare(metadata %class.GooString** %9, metadata !3148, metadata !DIExpression()), !dbg !3150
  %89 = call i8* @_Znwm(i64 40) #11, !dbg !3151
  %90 = bitcast i8* %89 to %class.GooString*, !dbg !3151
  %91 = load %class.GooString*, %class.GooString** %6, align 8, !dbg !3152
  %92 = call i8* @_ZNK9GooString10getCStringEv(%class.GooString* %91), !dbg !3153
  %93 = load %class.GooString*, %class.GooString** %6, align 8, !dbg !3154
  %94 = call i32 @_ZN9GooString9getLengthEv(%class.GooString* %93), !dbg !3155
  %95 = sub nsw i32 %94, 4, !dbg !3156
  call void @_ZN9GooStringC1EPKci(%class.GooString* %90, i8* %92, i32 %95), !dbg !3157
  store %class.GooString* %90, %class.GooString** %9, align 8, !dbg !3150
  %96 = load %class.GooString*, %class.GooString** %6, align 8, !dbg !3158
  %97 = icmp eq %class.GooString* %96, null, !dbg !3159
  br i1 %97, label %100, label %98, !dbg !3159

; <label>:98:                                     ; preds = %88
  call void @_ZN9GooStringD1Ev(%class.GooString* %96), !dbg !3159
  %99 = bitcast %class.GooString* %96 to i8*, !dbg !3159
  call void @_ZdlPv(i8* %99) #14, !dbg !3159
  br label %100, !dbg !3159

; <label>:100:                                    ; preds = %98, %88
  %101 = load %class.GooString*, %class.GooString** %9, align 8, !dbg !3160
  store %class.GooString* %101, %class.GooString** %6, align 8, !dbg !3161
  br label %102, !dbg !3162

; <label>:102:                                    ; preds = %100, %84, %78
  %103 = load i8, i8* @_ZL2ps, align 1, !dbg !3163
  %104 = trunc i8 %103 to i1, !dbg !3163
  br i1 %104, label %105, label %108, !dbg !3165

; <label>:105:                                    ; preds = %102
  %106 = load %class.GooString*, %class.GooString** %6, align 8, !dbg !3166
  %107 = call %class.GooString* @_ZN9GooString6appendEPKci(%class.GooString* %106, i8* getelementptr inbounds ([4 x i8], [4 x i8]* @.str.127, i32 0, i32 0), i32 -1), !dbg !3167
  br label %129, !dbg !3166

; <label>:108:                                    ; preds = %102
  %109 = load i8, i8* @_ZL3eps, align 1, !dbg !3168
  %110 = trunc i8 %109 to i1, !dbg !3168
  br i1 %110, label %111, label %114, !dbg !3170

; <label>:111:                                    ; preds = %108
  %112 = load %class.GooString*, %class.GooString** %6, align 8, !dbg !3171
  %113 = call %class.GooString* @_ZN9GooString6appendEPKci(%class.GooString* %112, i8* getelementptr inbounds ([5 x i8], [5 x i8]* @.str.128, i32 0, i32 0), i32 -1), !dbg !3172
  br label %128, !dbg !3171

; <label>:114:                                    ; preds = %108
  %115 = load i8, i8* @_ZL3pdf, align 1, !dbg !3173
  %116 = trunc i8 %115 to i1, !dbg !3173
  br i1 %116, label %117, label %120, !dbg !3175

; <label>:117:                                    ; preds = %114
  %118 = load %class.GooString*, %class.GooString** %6, align 8, !dbg !3176
  %119 = call %class.GooString* @_ZN9GooString6appendEPKci(%class.GooString* %118, i8* getelementptr inbounds ([5 x i8], [5 x i8]* @.str.126, i32 0, i32 0), i32 -1), !dbg !3177
  br label %127, !dbg !3176

; <label>:120:                                    ; preds = %114
  %121 = load i8, i8* @_ZL3svg, align 1, !dbg !3178
  %122 = trunc i8 %121 to i1, !dbg !3178
  br i1 %122, label %123, label %126, !dbg !3180

; <label>:123:                                    ; preds = %120
  %124 = load %class.GooString*, %class.GooString** %6, align 8, !dbg !3181
  %125 = call %class.GooString* @_ZN9GooString6appendEPKci(%class.GooString* %124, i8* getelementptr inbounds ([5 x i8], [5 x i8]* @.str.129, i32 0, i32 0), i32 -1), !dbg !3182
  br label %126, !dbg !3181

; <label>:126:                                    ; preds = %123, %120
  br label %127

; <label>:127:                                    ; preds = %126, %117
  br label %128

; <label>:128:                                    ; preds = %127, %111
  br label %129

; <label>:129:                                    ; preds = %128, %105
  %130 = load %class.GooString*, %class.GooString** %6, align 8, !dbg !3183
  store %class.GooString* %130, %class.GooString** %3, align 8, !dbg !3184
  br label %131, !dbg !3184

; <label>:131:                                    ; preds = %129, %28, %25
  %132 = load %class.GooString*, %class.GooString** %3, align 8, !dbg !3185
  ret %class.GooString* %132, !dbg !3185
}

declare void @_ZN13PDFDocFactoryC1EP7GooList(%class.PDFDocFactory*, %class.GooList*) unnamed_addr #1

declare %class.PDFDoc* @_ZN13PDFDocFactory12createPDFDocERK9GooStringPS0_S3_Pv(%class.PDFDocFactory*, %class.GooString* dereferenceable(40), %class.GooString*, %class.GooString*, i8*) #1

declare void @_ZN13PDFDocFactoryD1Ev(%class.PDFDocFactory*) unnamed_addr #1

; Function Attrs: noinline nounwind optnone uwtable
define weak_odr dso_local zeroext i1 @_ZN6PDFDoc4isOkEv(%class.PDFDoc*) #3 comdat align 2 !dbg !3186 {
  %2 = alloca %class.PDFDoc*, align 8
  store %class.PDFDoc* %0, %class.PDFDoc** %2, align 8
  call void @llvm.dbg.declare(metadata %class.PDFDoc** %2, metadata !3187, metadata !DIExpression()), !dbg !3188
  %3 = load %class.PDFDoc*, %class.PDFDoc** %2, align 8
  %4 = getelementptr inbounds %class.PDFDoc, %class.PDFDoc* %3, i32 0, i32 13, !dbg !3189
  %5 = load i8, i8* %4, align 8, !dbg !3189
  %6 = trunc i8 %5 to i1, !dbg !3189
  ret i1 %6, !dbg !3190
}

declare i32 @_ZN6PDFDoc11getNumPagesEv(%class.PDFDoc*) #1

declare void @_ZN14CairoOutputDevC1Ev(%class.CairoOutputDev*) unnamed_addr #1

declare void @_ZN14CairoOutputDev8startDocEP6PDFDocP15CairoFontEngine(%class.CairoOutputDev*, %class.PDFDoc*, %class.CairoFontEngine*) #1

; Function Attrs: noinline nounwind optnone uwtable
define internal i32 @_ZL18numberOfCharactersj(i32) #3 !dbg !3191 {
  %2 = alloca i32, align 4
  %3 = alloca i32, align 4
  store i32 %0, i32* %2, align 4
  call void @llvm.dbg.declare(metadata i32* %2, metadata !3194, metadata !DIExpression()), !dbg !3195
  call void @llvm.dbg.declare(metadata i32* %3, metadata !3196, metadata !DIExpression()), !dbg !3197
  store i32 0, i32* %3, align 4, !dbg !3197
  br label %4, !dbg !3198

; <label>:4:                                      ; preds = %7, %1
  %5 = load i32, i32* %2, align 4, !dbg !3199
  %6 = icmp uge i32 %5, 10, !dbg !3200
  br i1 %6, label %7, label %12, !dbg !3198

; <label>:7:                                      ; preds = %4
  %8 = load i32, i32* %2, align 4, !dbg !3201
  %9 = udiv i32 %8, 10, !dbg !3203
  store i32 %9, i32* %2, align 4, !dbg !3204
  %10 = load i32, i32* %3, align 4, !dbg !3205
  %11 = add nsw i32 %10, 1, !dbg !3205
  store i32 %11, i32* %3, align 4, !dbg !3205
  br label %4, !dbg !3198, !llvm.loop !3206

; <label>:12:                                     ; preds = %4
  %13 = load i32, i32* %3, align 4, !dbg !3208
  %14 = add nsw i32 %13, 1, !dbg !3208
  store i32 %14, i32* %3, align 4, !dbg !3208
  %15 = load i32, i32* %3, align 4, !dbg !3209
  ret i32 %15, !dbg !3210
}

; Function Attrs: noinline nounwind optnone uwtable
define weak_odr dso_local double @_ZN6PDFDoc16getPageCropWidthEi(%class.PDFDoc*, i32) #3 comdat align 2 !dbg !3211 {
  %3 = alloca %class.PDFDoc*, align 8
  %4 = alloca i32, align 4
  store %class.PDFDoc* %0, %class.PDFDoc** %3, align 8
  call void @llvm.dbg.declare(metadata %class.PDFDoc** %3, metadata !3212, metadata !DIExpression()), !dbg !3213
  store i32 %1, i32* %4, align 4
  call void @llvm.dbg.declare(metadata i32* %4, metadata !3214, metadata !DIExpression()), !dbg !3215
  %5 = load %class.PDFDoc*, %class.PDFDoc** %3, align 8
  %6 = load i32, i32* %4, align 4, !dbg !3216
  %7 = call %class.Page* @_ZN6PDFDoc7getPageEi(%class.PDFDoc* %5, i32 %6), !dbg !3217
  %8 = icmp ne %class.Page* %7, null, !dbg !3217
  br i1 %8, label %9, label %13, !dbg !3217

; <label>:9:                                      ; preds = %2
  %10 = load i32, i32* %4, align 4, !dbg !3218
  %11 = call %class.Page* @_ZN6PDFDoc7getPageEi(%class.PDFDoc* %5, i32 %10), !dbg !3219
  %12 = call double @_ZN4Page12getCropWidthEv(%class.Page* %11), !dbg !3220
  br label %14, !dbg !3217

; <label>:13:                                     ; preds = %2
  br label %14, !dbg !3217

; <label>:14:                                     ; preds = %13, %9
  %15 = phi double [ %12, %9 ], [ 0.000000e+00, %13 ], !dbg !3217
  ret double %15, !dbg !3221
}

; Function Attrs: noinline nounwind optnone uwtable
define weak_odr dso_local double @_ZN6PDFDoc17getPageCropHeightEi(%class.PDFDoc*, i32) #3 comdat align 2 !dbg !3222 {
  %3 = alloca %class.PDFDoc*, align 8
  %4 = alloca i32, align 4
  store %class.PDFDoc* %0, %class.PDFDoc** %3, align 8
  call void @llvm.dbg.declare(metadata %class.PDFDoc** %3, metadata !3223, metadata !DIExpression()), !dbg !3224
  store i32 %1, i32* %4, align 4
  call void @llvm.dbg.declare(metadata i32* %4, metadata !3225, metadata !DIExpression()), !dbg !3226
  %5 = load %class.PDFDoc*, %class.PDFDoc** %3, align 8
  %6 = load i32, i32* %4, align 4, !dbg !3227
  %7 = call %class.Page* @_ZN6PDFDoc7getPageEi(%class.PDFDoc* %5, i32 %6), !dbg !3228
  %8 = icmp ne %class.Page* %7, null, !dbg !3228
  br i1 %8, label %9, label %13, !dbg !3228

; <label>:9:                                      ; preds = %2
  %10 = load i32, i32* %4, align 4, !dbg !3229
  %11 = call %class.Page* @_ZN6PDFDoc7getPageEi(%class.PDFDoc* %5, i32 %10), !dbg !3230
  %12 = call double @_ZN4Page13getCropHeightEv(%class.Page* %11), !dbg !3231
  br label %14, !dbg !3228

; <label>:13:                                     ; preds = %2
  br label %14, !dbg !3228

; <label>:14:                                     ; preds = %13, %9
  %15 = phi double [ %12, %9 ], [ 0.000000e+00, %13 ], !dbg !3228
  ret double %15, !dbg !3232
}

; Function Attrs: noinline nounwind optnone uwtable
define weak_odr dso_local double @_ZN6PDFDoc17getPageMediaWidthEi(%class.PDFDoc*, i32) #3 comdat align 2 !dbg !3233 {
  %3 = alloca %class.PDFDoc*, align 8
  %4 = alloca i32, align 4
  store %class.PDFDoc* %0, %class.PDFDoc** %3, align 8
  call void @llvm.dbg.declare(metadata %class.PDFDoc** %3, metadata !3234, metadata !DIExpression()), !dbg !3235
  store i32 %1, i32* %4, align 4
  call void @llvm.dbg.declare(metadata i32* %4, metadata !3236, metadata !DIExpression()), !dbg !3237
  %5 = load %class.PDFDoc*, %class.PDFDoc** %3, align 8
  %6 = load i32, i32* %4, align 4, !dbg !3238
  %7 = call %class.Page* @_ZN6PDFDoc7getPageEi(%class.PDFDoc* %5, i32 %6), !dbg !3239
  %8 = icmp ne %class.Page* %7, null, !dbg !3239
  br i1 %8, label %9, label %13, !dbg !3239

; <label>:9:                                      ; preds = %2
  %10 = load i32, i32* %4, align 4, !dbg !3240
  %11 = call %class.Page* @_ZN6PDFDoc7getPageEi(%class.PDFDoc* %5, i32 %10), !dbg !3241
  %12 = call double @_ZN4Page13getMediaWidthEv(%class.Page* %11), !dbg !3242
  br label %14, !dbg !3239

; <label>:13:                                     ; preds = %2
  br label %14, !dbg !3239

; <label>:14:                                     ; preds = %13, %9
  %15 = phi double [ %12, %9 ], [ 0.000000e+00, %13 ], !dbg !3239
  ret double %15, !dbg !3243
}

; Function Attrs: noinline nounwind optnone uwtable
define weak_odr dso_local double @_ZN6PDFDoc18getPageMediaHeightEi(%class.PDFDoc*, i32) #3 comdat align 2 !dbg !3244 {
  %3 = alloca %class.PDFDoc*, align 8
  %4 = alloca i32, align 4
  store %class.PDFDoc* %0, %class.PDFDoc** %3, align 8
  call void @llvm.dbg.declare(metadata %class.PDFDoc** %3, metadata !3245, metadata !DIExpression()), !dbg !3246
  store i32 %1, i32* %4, align 4
  call void @llvm.dbg.declare(metadata i32* %4, metadata !3247, metadata !DIExpression()), !dbg !3248
  %5 = load %class.PDFDoc*, %class.PDFDoc** %3, align 8
  %6 = load i32, i32* %4, align 4, !dbg !3249
  %7 = call %class.Page* @_ZN6PDFDoc7getPageEi(%class.PDFDoc* %5, i32 %6), !dbg !3250
  %8 = icmp ne %class.Page* %7, null, !dbg !3250
  br i1 %8, label %9, label %13, !dbg !3250

; <label>:9:                                      ; preds = %2
  %10 = load i32, i32* %4, align 4, !dbg !3251
  %11 = call %class.Page* @_ZN6PDFDoc7getPageEi(%class.PDFDoc* %5, i32 %10), !dbg !3252
  %12 = call double @_ZN4Page14getMediaHeightEv(%class.Page* %11), !dbg !3253
  br label %14, !dbg !3250

; <label>:13:                                     ; preds = %2
  br label %14, !dbg !3250

; <label>:14:                                     ; preds = %13, %9
  %15 = phi double [ %12, %9 ], [ 0.000000e+00, %13 ], !dbg !3250
  ret double %15, !dbg !3254
}

; Function Attrs: nounwind readnone speculatable
declare double @llvm.ceil.f64(double) #4

; Function Attrs: noinline nounwind optnone uwtable
define weak_odr dso_local i32 @_ZN6PDFDoc13getPageRotateEi(%class.PDFDoc*, i32) #3 comdat align 2 !dbg !3255 {
  %3 = alloca %class.PDFDoc*, align 8
  %4 = alloca i32, align 4
  store %class.PDFDoc* %0, %class.PDFDoc** %3, align 8
  call void @llvm.dbg.declare(metadata %class.PDFDoc** %3, metadata !3256, metadata !DIExpression()), !dbg !3257
  store i32 %1, i32* %4, align 4
  call void @llvm.dbg.declare(metadata i32* %4, metadata !3258, metadata !DIExpression()), !dbg !3259
  %5 = load %class.PDFDoc*, %class.PDFDoc** %3, align 8
  %6 = load i32, i32* %4, align 4, !dbg !3260
  %7 = call %class.Page* @_ZN6PDFDoc7getPageEi(%class.PDFDoc* %5, i32 %6), !dbg !3261
  %8 = icmp ne %class.Page* %7, null, !dbg !3261
  br i1 %8, label %9, label %13, !dbg !3261

; <label>:9:                                      ; preds = %2
  %10 = load i32, i32* %4, align 4, !dbg !3262
  %11 = call %class.Page* @_ZN6PDFDoc7getPageEi(%class.PDFDoc* %5, i32 %10), !dbg !3263
  %12 = call i32 @_ZN4Page9getRotateEv(%class.Page* %11), !dbg !3264
  br label %14, !dbg !3261

; <label>:13:                                     ; preds = %2
  br label %14, !dbg !3261

; <label>:14:                                     ; preds = %13, %9
  %15 = phi i32 [ %12, %9 ], [ 0, %13 ], !dbg !3261
  ret i32 %15, !dbg !3265
}

; Function Attrs: noinline nounwind optnone uwtable
define internal %class.GooString* @_ZL16getImageFileNameP9GooStringii(%class.GooString*, i32, i32) #3 !dbg !3266 {
  %4 = alloca %class.GooString*, align 8
  %5 = alloca i32, align 4
  %6 = alloca i32, align 4
  %7 = alloca [10 x i8], align 1
  %8 = alloca %class.GooString*, align 8
  store %class.GooString* %0, %class.GooString** %4, align 8
  call void @llvm.dbg.declare(metadata %class.GooString** %4, metadata !3269, metadata !DIExpression()), !dbg !3270
  store i32 %1, i32* %5, align 4
  call void @llvm.dbg.declare(metadata i32* %5, metadata !3271, metadata !DIExpression()), !dbg !3272
  store i32 %2, i32* %6, align 4
  call void @llvm.dbg.declare(metadata i32* %6, metadata !3273, metadata !DIExpression()), !dbg !3274
  call void @llvm.dbg.declare(metadata [10 x i8]* %7, metadata !3275, metadata !DIExpression()), !dbg !3279
  call void @llvm.dbg.declare(metadata %class.GooString** %8, metadata !3280, metadata !DIExpression()), !dbg !3281
  %9 = call i8* @_Znwm(i64 40) #11, !dbg !3282
  %10 = bitcast i8* %9 to %class.GooString*, !dbg !3282
  %11 = load %class.GooString*, %class.GooString** %4, align 8, !dbg !3283
  call void @_ZN9GooStringC1EPKS_(%class.GooString* %10, %class.GooString* %11), !dbg !3284
  store %class.GooString* %10, %class.GooString** %8, align 8, !dbg !3281
  %12 = load i8, i8* @_ZL10singleFile, align 1, !dbg !3285
  %13 = trunc i8 %12 to i1, !dbg !3285
  br i1 %13, label %22, label %14, !dbg !3287

; <label>:14:                                     ; preds = %3
  %15 = getelementptr inbounds [10 x i8], [10 x i8]* %7, i32 0, i32 0, !dbg !3288
  %16 = load i32, i32* %5, align 4, !dbg !3290
  %17 = load i32, i32* %6, align 4, !dbg !3291
  %18 = call i32 (i8*, i64, i8*, ...) @snprintf(i8* %15, i64 10, i8* getelementptr inbounds ([6 x i8], [6 x i8]* @.str.130, i32 0, i32 0), i32 %16, i32 %17) #2, !dbg !3292
  %19 = load %class.GooString*, %class.GooString** %8, align 8, !dbg !3293
  %20 = getelementptr inbounds [10 x i8], [10 x i8]* %7, i32 0, i32 0, !dbg !3294
  %21 = call %class.GooString* (%class.GooString*, i8*, ...) @_ZN9GooString7appendfEPKcz(%class.GooString* %19, i8* %20), !dbg !3295
  br label %22, !dbg !3296

; <label>:22:                                     ; preds = %14, %3
  %23 = load i8, i8* @_ZL3png, align 1, !dbg !3297
  %24 = trunc i8 %23 to i1, !dbg !3297
  br i1 %24, label %25, label %28, !dbg !3299

; <label>:25:                                     ; preds = %22
  %26 = load %class.GooString*, %class.GooString** %8, align 8, !dbg !3300
  %27 = call %class.GooString* @_ZN9GooString6appendEPKci(%class.GooString* %26, i8* getelementptr inbounds ([5 x i8], [5 x i8]* @.str.131, i32 0, i32 0), i32 -1), !dbg !3301
  br label %42, !dbg !3300

; <label>:28:                                     ; preds = %22
  %29 = load i8, i8* @_ZL4jpeg, align 1, !dbg !3302
  %30 = trunc i8 %29 to i1, !dbg !3302
  br i1 %30, label %31, label %34, !dbg !3304

; <label>:31:                                     ; preds = %28
  %32 = load %class.GooString*, %class.GooString** %8, align 8, !dbg !3305
  %33 = call %class.GooString* @_ZN9GooString6appendEPKci(%class.GooString* %32, i8* getelementptr inbounds ([5 x i8], [5 x i8]* @.str.132, i32 0, i32 0), i32 -1), !dbg !3306
  br label %41, !dbg !3305

; <label>:34:                                     ; preds = %28
  %35 = load i8, i8* @_ZL4tiff, align 1, !dbg !3307
  %36 = trunc i8 %35 to i1, !dbg !3307
  br i1 %36, label %37, label %40, !dbg !3309

; <label>:37:                                     ; preds = %34
  %38 = load %class.GooString*, %class.GooString** %8, align 8, !dbg !3310
  %39 = call %class.GooString* @_ZN9GooString6appendEPKci(%class.GooString* %38, i8* getelementptr inbounds ([5 x i8], [5 x i8]* @.str.133, i32 0, i32 0), i32 -1), !dbg !3311
  br label %40, !dbg !3310

; <label>:40:                                     ; preds = %37, %34
  br label %41

; <label>:41:                                     ; preds = %40, %31
  br label %42

; <label>:42:                                     ; preds = %41, %25
  %43 = load %class.GooString*, %class.GooString** %8, align 8, !dbg !3312
  ret %class.GooString* %43, !dbg !3313
}

; Function Attrs: noinline nounwind optnone uwtable
define internal void @_ZL13getOutputSizeddPdS_(double, double, double*, double*) #3 !dbg !3314 {
  %5 = alloca double, align 8
  %6 = alloca double, align 8
  %7 = alloca double*, align 8
  %8 = alloca double*, align 8
  store double %0, double* %5, align 8
  call void @llvm.dbg.declare(metadata double* %5, metadata !3317, metadata !DIExpression()), !dbg !3318
  store double %1, double* %6, align 8
  call void @llvm.dbg.declare(metadata double* %6, metadata !3319, metadata !DIExpression()), !dbg !3320
  store double* %2, double** %7, align 8
  call void @llvm.dbg.declare(metadata double** %7, metadata !3321, metadata !DIExpression()), !dbg !3322
  store double* %3, double** %8, align 8
  call void @llvm.dbg.declare(metadata double** %8, metadata !3323, metadata !DIExpression()), !dbg !3324
  %9 = load i8, i8* @_ZL8printing, align 1, !dbg !3325
  %10 = trunc i8 %9 to i1, !dbg !3325
  br i1 %10, label %11, label %27, !dbg !3327

; <label>:11:                                     ; preds = %4
  %12 = load i8, i8* @_ZL15doOrigPageSizes, align 1, !dbg !3328
  %13 = trunc i8 %12 to i1, !dbg !3328
  br i1 %13, label %14, label %19, !dbg !3331

; <label>:14:                                     ; preds = %11
  %15 = load double, double* %5, align 8, !dbg !3332
  %16 = load double*, double** %7, align 8, !dbg !3334
  store double %15, double* %16, align 8, !dbg !3335
  %17 = load double, double* %6, align 8, !dbg !3336
  %18 = load double*, double** %8, align 8, !dbg !3337
  store double %17, double* %18, align 8, !dbg !3338
  br label %26, !dbg !3339

; <label>:19:                                     ; preds = %11
  %20 = load i32, i32* @_ZL10paperWidth, align 4, !dbg !3340
  %21 = sitofp i32 %20 to double, !dbg !3340
  %22 = load double*, double** %7, align 8, !dbg !3342
  store double %21, double* %22, align 8, !dbg !3343
  %23 = load i32, i32* @_ZL11paperHeight, align 4, !dbg !3344
  %24 = sitofp i32 %23 to double, !dbg !3344
  %25 = load double*, double** %8, align 8, !dbg !3345
  store double %24, double* %25, align 8, !dbg !3346
  br label %26

; <label>:26:                                     ; preds = %19, %14
  br label %38, !dbg !3347

; <label>:27:                                     ; preds = %4
  %28 = load double, double* %5, align 8, !dbg !3348
  %29 = load double, double* @_ZL12x_resolution, align 8, !dbg !3350
  %30 = fdiv double %29, 7.200000e+01, !dbg !3351
  %31 = fmul double %28, %30, !dbg !3352
  %32 = load double, double* %6, align 8, !dbg !3353
  %33 = load double, double* @_ZL12y_resolution, align 8, !dbg !3354
  %34 = fdiv double %33, 7.200000e+01, !dbg !3355
  %35 = fmul double %32, %34, !dbg !3356
  %36 = load double*, double** %7, align 8, !dbg !3357
  %37 = load double*, double** %8, align 8, !dbg !3358
  call void @_ZL11getCropSizeddPdS_(double %31, double %35, double* %36, double* %37), !dbg !3359
  br label %38

; <label>:38:                                     ; preds = %27, %26
  ret void, !dbg !3360
}

; Function Attrs: noinline nounwind optnone uwtable
define internal void @_ZL13beginDocumentP9GooStringdd(%class.GooString*, double, double) #3 !dbg !3361 {
  %4 = alloca %class.GooString*, align 8
  %5 = alloca double, align 8
  %6 = alloca double, align 8
  store %class.GooString* %0, %class.GooString** %4, align 8
  call void @llvm.dbg.declare(metadata %class.GooString** %4, metadata !3364, metadata !DIExpression()), !dbg !3365
  store double %1, double* %5, align 8
  call void @llvm.dbg.declare(metadata double* %5, metadata !3366, metadata !DIExpression()), !dbg !3367
  store double %2, double* %6, align 8
  call void @llvm.dbg.declare(metadata double* %6, metadata !3368, metadata !DIExpression()), !dbg !3369
  %7 = load i8, i8* @_ZL8printing, align 1, !dbg !3370
  %8 = trunc i8 %7 to i1, !dbg !3370
  br i1 %8, label %9, label %71, !dbg !3372

; <label>:9:                                      ; preds = %3
  %10 = load %class.GooString*, %class.GooString** %4, align 8, !dbg !3373
  %11 = call i32 @_ZNK9GooString3cmpEPKc(%class.GooString* %10, i8* getelementptr inbounds ([7 x i8], [7 x i8]* @.str, i32 0, i32 0)), !dbg !3376
  %12 = icmp eq i32 %11, 0, !dbg !3377
  br i1 %12, label %13, label %15, !dbg !3378

; <label>:13:                                     ; preds = %9
  %14 = load %struct._IO_FILE*, %struct._IO_FILE** @stdout, align 8, !dbg !3379
  store %struct._IO_FILE* %14, %struct._IO_FILE** @_ZL11output_file, align 8, !dbg !3380
  br label %19, !dbg !3381

; <label>:15:                                     ; preds = %9
  %16 = load %class.GooString*, %class.GooString** %4, align 8, !dbg !3382
  %17 = call i8* @_ZNK9GooString10getCStringEv(%class.GooString* %16), !dbg !3383
  %18 = call %struct._IO_FILE* @fopen(i8* %17, i8* getelementptr inbounds ([3 x i8], [3 x i8]* @.str.1, i32 0, i32 0)), !dbg !3384
  store %struct._IO_FILE* %18, %struct._IO_FILE** @_ZL11output_file, align 8, !dbg !3385
  br label %19

; <label>:19:                                     ; preds = %15, %13
  %20 = load i8, i8* @_ZL2ps, align 1, !dbg !3386
  %21 = trunc i8 %20 to i1, !dbg !3386
  br i1 %21, label %25, label %22, !dbg !3388

; <label>:22:                                     ; preds = %19
  %23 = load i8, i8* @_ZL3eps, align 1, !dbg !3389
  %24 = trunc i8 %23 to i1, !dbg !3389
  br i1 %24, label %25, label %49, !dbg !3390

; <label>:25:                                     ; preds = %22, %19
  %26 = load %struct._IO_FILE*, %struct._IO_FILE** @_ZL11output_file, align 8, !dbg !3391
  %27 = bitcast %struct._IO_FILE* %26 to i8*, !dbg !3391
  %28 = load double, double* %5, align 8, !dbg !3393
  %29 = load double, double* %6, align 8, !dbg !3394
  %30 = call %struct._cairo_surface* @cairo_ps_surface_create_for_stream(i32 (i8*, i8*, i32)* @_ZL11writeStreamPvPKhj, i8* %27, double %28, double %29), !dbg !3395
  store %struct._cairo_surface* %30, %struct._cairo_surface** @_ZL7surface, align 8, !dbg !3396
  %31 = load i8, i8* @_ZL6level2, align 1, !dbg !3397
  %32 = trunc i8 %31 to i1, !dbg !3397
  br i1 %32, label %33, label %35, !dbg !3399

; <label>:33:                                     ; preds = %25
  %34 = load %struct._cairo_surface*, %struct._cairo_surface** @_ZL7surface, align 8, !dbg !3400
  call void @cairo_ps_surface_restrict_to_level(%struct._cairo_surface* %34, i32 0), !dbg !3401
  br label %35, !dbg !3401

; <label>:35:                                     ; preds = %33, %25
  %36 = load i8, i8* @_ZL3eps, align 1, !dbg !3402
  %37 = trunc i8 %36 to i1, !dbg !3402
  br i1 %37, label %38, label %40, !dbg !3404

; <label>:38:                                     ; preds = %35
  %39 = load %struct._cairo_surface*, %struct._cairo_surface** @_ZL7surface, align 8, !dbg !3405
  call void @cairo_ps_surface_set_eps(%struct._cairo_surface* %39, i32 1), !dbg !3406
  br label %40, !dbg !3406

; <label>:40:                                     ; preds = %38, %35
  %41 = load i8, i8* @_ZL6duplex, align 1, !dbg !3407
  %42 = trunc i8 %41 to i1, !dbg !3407
  br i1 %42, label %43, label %47, !dbg !3409

; <label>:43:                                     ; preds = %40
  %44 = load %struct._cairo_surface*, %struct._cairo_surface** @_ZL7surface, align 8, !dbg !3410
  call void @cairo_ps_surface_dsc_comment(%struct._cairo_surface* %44, i8* getelementptr inbounds ([23 x i8], [23 x i8]* @.str.134, i32 0, i32 0)), !dbg !3412
  %45 = load %struct._cairo_surface*, %struct._cairo_surface** @_ZL7surface, align 8, !dbg !3413
  call void @cairo_ps_surface_dsc_begin_setup(%struct._cairo_surface* %45), !dbg !3414
  %46 = load %struct._cairo_surface*, %struct._cairo_surface** @_ZL7surface, align 8, !dbg !3415
  call void @cairo_ps_surface_dsc_comment(%struct._cairo_surface* %46, i8* getelementptr inbounds ([41 x i8], [41 x i8]* @.str.135, i32 0, i32 0)), !dbg !3416
  br label %47, !dbg !3417

; <label>:47:                                     ; preds = %43, %40
  %48 = load %struct._cairo_surface*, %struct._cairo_surface** @_ZL7surface, align 8, !dbg !3418
  call void @cairo_ps_surface_dsc_begin_page_setup(%struct._cairo_surface* %48), !dbg !3419
  br label %70, !dbg !3420

; <label>:49:                                     ; preds = %22
  %50 = load i8, i8* @_ZL3pdf, align 1, !dbg !3421
  %51 = trunc i8 %50 to i1, !dbg !3421
  br i1 %51, label %52, label %58, !dbg !3423

; <label>:52:                                     ; preds = %49
  %53 = load %struct._IO_FILE*, %struct._IO_FILE** @_ZL11output_file, align 8, !dbg !3424
  %54 = bitcast %struct._IO_FILE* %53 to i8*, !dbg !3424
  %55 = load double, double* %5, align 8, !dbg !3426
  %56 = load double, double* %6, align 8, !dbg !3427
  %57 = call %struct._cairo_surface* @cairo_pdf_surface_create_for_stream(i32 (i8*, i8*, i32)* @_ZL11writeStreamPvPKhj, i8* %54, double %55, double %56), !dbg !3428
  store %struct._cairo_surface* %57, %struct._cairo_surface** @_ZL7surface, align 8, !dbg !3429
  br label %69, !dbg !3430

; <label>:58:                                     ; preds = %49
  %59 = load i8, i8* @_ZL3svg, align 1, !dbg !3431
  %60 = trunc i8 %59 to i1, !dbg !3431
  br i1 %60, label %61, label %68, !dbg !3433

; <label>:61:                                     ; preds = %58
  %62 = load %struct._IO_FILE*, %struct._IO_FILE** @_ZL11output_file, align 8, !dbg !3434
  %63 = bitcast %struct._IO_FILE* %62 to i8*, !dbg !3434
  %64 = load double, double* %5, align 8, !dbg !3436
  %65 = load double, double* %6, align 8, !dbg !3437
  %66 = call %struct._cairo_surface* @cairo_svg_surface_create_for_stream(i32 (i8*, i8*, i32)* @_ZL11writeStreamPvPKhj, i8* %63, double %64, double %65), !dbg !3438
  store %struct._cairo_surface* %66, %struct._cairo_surface** @_ZL7surface, align 8, !dbg !3439
  %67 = load %struct._cairo_surface*, %struct._cairo_surface** @_ZL7surface, align 8, !dbg !3440
  call void @cairo_svg_surface_restrict_to_version(%struct._cairo_surface* %67, i32 1), !dbg !3441
  br label %68, !dbg !3442

; <label>:68:                                     ; preds = %61, %58
  br label %69

; <label>:69:                                     ; preds = %68, %52
  br label %70

; <label>:70:                                     ; preds = %69, %47
  br label %71, !dbg !3443

; <label>:71:                                     ; preds = %70, %3
  ret void, !dbg !3444
}

; Function Attrs: noinline nounwind optnone uwtable
define internal void @_ZL9beginPagedd(double, double) #3 !dbg !3445 {
  %3 = alloca double, align 8
  %4 = alloca double, align 8
  store double %0, double* %3, align 8
  call void @llvm.dbg.declare(metadata double* %3, metadata !3448, metadata !DIExpression()), !dbg !3449
  store double %1, double* %4, align 8
  call void @llvm.dbg.declare(metadata double* %4, metadata !3450, metadata !DIExpression()), !dbg !3451
  %5 = load i8, i8* @_ZL8printing, align 1, !dbg !3452
  %6 = trunc i8 %5 to i1, !dbg !3452
  br i1 %6, label %7, label %39, !dbg !3454

; <label>:7:                                      ; preds = %2
  %8 = load i8, i8* @_ZL2ps, align 1, !dbg !3455
  %9 = trunc i8 %8 to i1, !dbg !3455
  br i1 %9, label %13, label %10, !dbg !3458

; <label>:10:                                     ; preds = %7
  %11 = load i8, i8* @_ZL3eps, align 1, !dbg !3459
  %12 = trunc i8 %11 to i1, !dbg !3459
  br i1 %12, label %13, label %28, !dbg !3460

; <label>:13:                                     ; preds = %10, %7
  %14 = load double, double* %3, align 8, !dbg !3461
  %15 = load double, double* %4, align 8, !dbg !3464
  %16 = fcmp ogt double %14, %15, !dbg !3465
  br i1 %16, label %17, label %22, !dbg !3466

; <label>:17:                                     ; preds = %13
  %18 = load %struct._cairo_surface*, %struct._cairo_surface** @_ZL7surface, align 8, !dbg !3467
  call void @cairo_ps_surface_dsc_comment(%struct._cairo_surface* %18, i8* getelementptr inbounds ([29 x i8], [29 x i8]* @.str.136, i32 0, i32 0)), !dbg !3469
  %19 = load %struct._cairo_surface*, %struct._cairo_surface** @_ZL7surface, align 8, !dbg !3470
  %20 = load double, double* %4, align 8, !dbg !3471
  %21 = load double, double* %3, align 8, !dbg !3472
  call void @cairo_ps_surface_set_size(%struct._cairo_surface* %19, double %20, double %21), !dbg !3473
  br label %27, !dbg !3474

; <label>:22:                                     ; preds = %13
  %23 = load %struct._cairo_surface*, %struct._cairo_surface** @_ZL7surface, align 8, !dbg !3475
  call void @cairo_ps_surface_dsc_comment(%struct._cairo_surface* %23, i8* getelementptr inbounds ([28 x i8], [28 x i8]* @.str.137, i32 0, i32 0)), !dbg !3477
  %24 = load %struct._cairo_surface*, %struct._cairo_surface** @_ZL7surface, align 8, !dbg !3478
  %25 = load double, double* %3, align 8, !dbg !3479
  %26 = load double, double* %4, align 8, !dbg !3480
  call void @cairo_ps_surface_set_size(%struct._cairo_surface* %24, double %25, double %26), !dbg !3481
  br label %27

; <label>:27:                                     ; preds = %22, %17
  br label %28, !dbg !3482

; <label>:28:                                     ; preds = %27, %10
  %29 = load i8, i8* @_ZL3pdf, align 1, !dbg !3483
  %30 = trunc i8 %29 to i1, !dbg !3483
  br i1 %30, label %31, label %35, !dbg !3485

; <label>:31:                                     ; preds = %28
  %32 = load %struct._cairo_surface*, %struct._cairo_surface** @_ZL7surface, align 8, !dbg !3486
  %33 = load double, double* %3, align 8, !dbg !3487
  %34 = load double, double* %4, align 8, !dbg !3488
  call void @cairo_pdf_surface_set_size(%struct._cairo_surface* %32, double %33, double %34), !dbg !3489
  br label %35, !dbg !3489

; <label>:35:                                     ; preds = %31, %28
  %36 = load %struct._cairo_surface*, %struct._cairo_surface** @_ZL7surface, align 8, !dbg !3490
  %37 = load double, double* @_ZL12x_resolution, align 8, !dbg !3491
  %38 = load double, double* @_ZL12y_resolution, align 8, !dbg !3492
  call void @cairo_surface_set_fallback_resolution(%struct._cairo_surface* %36, double %37, double %38), !dbg !3493
  br label %47, !dbg !3494

; <label>:39:                                     ; preds = %2
  %40 = load double, double* %3, align 8, !dbg !3495
  %41 = call double @llvm.ceil.f64(double %40), !dbg !3497
  %42 = fptosi double %41 to i32, !dbg !3497
  %43 = load double, double* %4, align 8, !dbg !3498
  %44 = call double @llvm.ceil.f64(double %43), !dbg !3499
  %45 = fptosi double %44 to i32, !dbg !3499
  %46 = call %struct._cairo_surface* @cairo_image_surface_create(i32 0, i32 %42, i32 %45), !dbg !3500
  store %struct._cairo_surface* %46, %struct._cairo_surface** @_ZL7surface, align 8, !dbg !3501
  br label %47

; <label>:47:                                     ; preds = %39, %35
  ret void, !dbg !3502
}

; Function Attrs: noinline nounwind optnone uwtable
define internal void @_ZL10renderPageP6PDFDocP14CairoOutputDevidddd(%class.PDFDoc*, %class.CairoOutputDev*, i32, double, double, double, double) #3 !dbg !3503 {
  %8 = alloca %class.PDFDoc*, align 8
  %9 = alloca %class.CairoOutputDev*, align 8
  %10 = alloca i32, align 4
  %11 = alloca double, align 8
  %12 = alloca double, align 8
  %13 = alloca double, align 8
  %14 = alloca double, align 8
  %15 = alloca %struct._cairo*, align 8
  %16 = alloca i32, align 4
  %17 = alloca %struct._cairo_matrix, align 8
  %18 = alloca double, align 8
  %19 = alloca double, align 8
  store %class.PDFDoc* %0, %class.PDFDoc** %8, align 8
  call void @llvm.dbg.declare(metadata %class.PDFDoc** %8, metadata !3506, metadata !DIExpression()), !dbg !3507
  store %class.CairoOutputDev* %1, %class.CairoOutputDev** %9, align 8
  call void @llvm.dbg.declare(metadata %class.CairoOutputDev** %9, metadata !3508, metadata !DIExpression()), !dbg !3509
  store i32 %2, i32* %10, align 4
  call void @llvm.dbg.declare(metadata i32* %10, metadata !3510, metadata !DIExpression()), !dbg !3511
  store double %3, double* %11, align 8
  call void @llvm.dbg.declare(metadata double* %11, metadata !3512, metadata !DIExpression()), !dbg !3513
  store double %4, double* %12, align 8
  call void @llvm.dbg.declare(metadata double* %12, metadata !3514, metadata !DIExpression()), !dbg !3515
  store double %5, double* %13, align 8
  call void @llvm.dbg.declare(metadata double* %13, metadata !3516, metadata !DIExpression()), !dbg !3517
  store double %6, double* %14, align 8
  call void @llvm.dbg.declare(metadata double* %14, metadata !3518, metadata !DIExpression()), !dbg !3519
  call void @llvm.dbg.declare(metadata %struct._cairo** %15, metadata !3520, metadata !DIExpression()), !dbg !3524
  call void @llvm.dbg.declare(metadata i32* %16, metadata !3525, metadata !DIExpression()), !dbg !3527
  call void @llvm.dbg.declare(metadata %struct._cairo_matrix* %17, metadata !3528, metadata !DIExpression()), !dbg !3538
  %20 = load %struct._cairo_surface*, %struct._cairo_surface** @_ZL7surface, align 8, !dbg !3539
  %21 = call %struct._cairo* @cairo_create(%struct._cairo_surface* %20), !dbg !3540
  store %struct._cairo* %21, %struct._cairo** %15, align 8, !dbg !3541
  %22 = load %class.CairoOutputDev*, %class.CairoOutputDev** %9, align 8, !dbg !3542
  %23 = load %struct._cairo*, %struct._cairo** %15, align 8, !dbg !3543
  call void @_ZN14CairoOutputDev8setCairoEP6_cairo(%class.CairoOutputDev* %22, %struct._cairo* %23), !dbg !3544
  %24 = load %class.CairoOutputDev*, %class.CairoOutputDev** %9, align 8, !dbg !3545
  %25 = load i8, i8* @_ZL8printing, align 1, !dbg !3546
  %26 = trunc i8 %25 to i1, !dbg !3546
  call void @_ZN14CairoOutputDev11setPrintingEb(%class.CairoOutputDev* %24, i1 zeroext %26), !dbg !3547
  %27 = load %struct._cairo*, %struct._cairo** %15, align 8, !dbg !3548
  call void @cairo_save(%struct._cairo* %27), !dbg !3549
  %28 = load i8, i8* @_ZL2ps, align 1, !dbg !3550
  %29 = trunc i8 %28 to i1, !dbg !3550
  br i1 %29, label %30, label %38, !dbg !3552

; <label>:30:                                     ; preds = %7
  %31 = load double, double* %13, align 8, !dbg !3553
  %32 = load double, double* %14, align 8, !dbg !3554
  %33 = fcmp ogt double %31, %32, !dbg !3555
  br i1 %33, label %34, label %38, !dbg !3556

; <label>:34:                                     ; preds = %30
  %35 = load %struct._cairo*, %struct._cairo** %15, align 8, !dbg !3557
  %36 = load double, double* %13, align 8, !dbg !3559
  call void @cairo_translate(%struct._cairo* %35, double 0.000000e+00, double %36), !dbg !3560
  call void @cairo_matrix_init(%struct._cairo_matrix* %17, double 0.000000e+00, double -1.000000e+00, double 1.000000e+00, double 0.000000e+00, double 0.000000e+00, double 0.000000e+00), !dbg !3561
  %37 = load %struct._cairo*, %struct._cairo** %15, align 8, !dbg !3562
  call void @cairo_transform(%struct._cairo* %37, %struct._cairo_matrix* %17), !dbg !3563
  br label %38, !dbg !3564

; <label>:38:                                     ; preds = %34, %30, %7
  %39 = load %struct._cairo*, %struct._cairo** %15, align 8, !dbg !3565
  %40 = load i32, i32* @_ZL6crop_x, align 4, !dbg !3566
  %41 = sub nsw i32 0, %40, !dbg !3567
  %42 = sitofp i32 %41 to double, !dbg !3567
  %43 = load i32, i32* @_ZL6crop_y, align 4, !dbg !3568
  %44 = sub nsw i32 0, %43, !dbg !3569
  %45 = sitofp i32 %44 to double, !dbg !3569
  call void @cairo_translate(%struct._cairo* %39, double %42, double %45), !dbg !3570
  %46 = load i8, i8* @_ZL8printing, align 1, !dbg !3571
  %47 = trunc i8 %46 to i1, !dbg !3571
  br i1 %47, label %48, label %64, !dbg !3573

; <label>:48:                                     ; preds = %38
  call void @llvm.dbg.declare(metadata double* %18, metadata !3574, metadata !DIExpression()), !dbg !3576
  call void @llvm.dbg.declare(metadata double* %19, metadata !3577, metadata !DIExpression()), !dbg !3578
  %49 = load double, double* %11, align 8, !dbg !3579
  %50 = load double, double* %12, align 8, !dbg !3580
  call void @_ZL11getCropSizeddPdS_(double %49, double %50, double* %18, double* %19), !dbg !3581
  %51 = load double, double* %18, align 8, !dbg !3582
  %52 = load double, double* %19, align 8, !dbg !3583
  %53 = load double, double* %13, align 8, !dbg !3584
  %54 = load double, double* %14, align 8, !dbg !3585
  call void @_ZL21getFitToPageTransformddddP13_cairo_matrix(double %51, double %52, double %53, double %54, %struct._cairo_matrix* %17), !dbg !3586
  %55 = load %struct._cairo*, %struct._cairo** %15, align 8, !dbg !3587
  call void @cairo_transform(%struct._cairo* %55, %struct._cairo_matrix* %17), !dbg !3588
  %56 = load %struct._cairo*, %struct._cairo** %15, align 8, !dbg !3589
  %57 = load i32, i32* @_ZL6crop_x, align 4, !dbg !3590
  %58 = sitofp i32 %57 to double, !dbg !3590
  %59 = load i32, i32* @_ZL6crop_y, align 4, !dbg !3591
  %60 = sitofp i32 %59 to double, !dbg !3591
  %61 = load double, double* %18, align 8, !dbg !3592
  %62 = load double, double* %19, align 8, !dbg !3593
  call void @cairo_rectangle(%struct._cairo* %56, double %58, double %60, double %61, double %62), !dbg !3594
  %63 = load %struct._cairo*, %struct._cairo** %15, align 8, !dbg !3595
  call void @cairo_clip(%struct._cairo* %63), !dbg !3596
  br label %70, !dbg !3597

; <label>:64:                                     ; preds = %38
  %65 = load %struct._cairo*, %struct._cairo** %15, align 8, !dbg !3598
  %66 = load double, double* @_ZL12x_resolution, align 8, !dbg !3600
  %67 = fdiv double %66, 7.200000e+01, !dbg !3601
  %68 = load double, double* @_ZL12y_resolution, align 8, !dbg !3602
  %69 = fdiv double %68, 7.200000e+01, !dbg !3603
  call void @cairo_scale(%struct._cairo* %65, double %67, double %69), !dbg !3604
  br label %70

; <label>:70:                                     ; preds = %64, %48
  %71 = load %class.PDFDoc*, %class.PDFDoc** %8, align 8, !dbg !3605
  %72 = load %class.CairoOutputDev*, %class.CairoOutputDev** %9, align 8, !dbg !3606
  %73 = bitcast %class.CairoOutputDev* %72 to %class.OutputDev*, !dbg !3606
  %74 = load i32, i32* %10, align 4, !dbg !3607
  %75 = load i8, i8* @_ZL10useCropBox, align 1, !dbg !3608
  %76 = trunc i8 %75 to i1, !dbg !3608
  %77 = xor i1 %76, true, !dbg !3609
  %78 = load i8, i8* @_ZL8printing, align 1, !dbg !3610
  %79 = trunc i8 %78 to i1, !dbg !3610
  call void @_ZN6PDFDoc16displayPageSliceEP9OutputDeviddibbbiiiiPFbPvES2_PFbP5AnnotS2_ES2_(%class.PDFDoc* %71, %class.OutputDev* %73, i32 %74, double 7.200000e+01, double 7.200000e+01, i32 0, i1 zeroext %77, i1 zeroext false, i1 zeroext %79, i32 -1, i32 -1, i32 -1, i32 -1, i1 (i8*)* null, i8* null, i1 (%class.Annot*, i8*)* null, i8* null), !dbg !3611
  %80 = load %struct._cairo*, %struct._cairo** %15, align 8, !dbg !3612
  call void @cairo_restore(%struct._cairo* %80), !dbg !3613
  %81 = load %class.CairoOutputDev*, %class.CairoOutputDev** %9, align 8, !dbg !3614
  call void @_ZN14CairoOutputDev8setCairoEP6_cairo(%class.CairoOutputDev* %81, %struct._cairo* null), !dbg !3615
  %82 = load i8, i8* @_ZL8printing, align 1, !dbg !3616
  %83 = trunc i8 %82 to i1, !dbg !3616
  br i1 %83, label %93, label %84, !dbg !3618

; <label>:84:                                     ; preds = %70
  %85 = load i8, i8* @_ZL6transp, align 1, !dbg !3619
  %86 = trunc i8 %85 to i1, !dbg !3619
  br i1 %86, label %93, label %87, !dbg !3620

; <label>:87:                                     ; preds = %84
  %88 = load %struct._cairo*, %struct._cairo** %15, align 8, !dbg !3621
  call void @cairo_save(%struct._cairo* %88), !dbg !3623
  %89 = load %struct._cairo*, %struct._cairo** %15, align 8, !dbg !3624
  call void @cairo_set_operator(%struct._cairo* %89, i32 7), !dbg !3625
  %90 = load %struct._cairo*, %struct._cairo** %15, align 8, !dbg !3626
  call void @cairo_set_source_rgb(%struct._cairo* %90, double 1.000000e+00, double 1.000000e+00, double 1.000000e+00), !dbg !3627
  %91 = load %struct._cairo*, %struct._cairo** %15, align 8, !dbg !3628
  call void @cairo_paint(%struct._cairo* %91), !dbg !3629
  %92 = load %struct._cairo*, %struct._cairo** %15, align 8, !dbg !3630
  call void @cairo_restore(%struct._cairo* %92), !dbg !3631
  br label %93, !dbg !3632

; <label>:93:                                     ; preds = %87, %84, %70
  %94 = load %struct._cairo*, %struct._cairo** %15, align 8, !dbg !3633
  %95 = call i32 @cairo_status(%struct._cairo* %94), !dbg !3634
  store i32 %95, i32* %16, align 4, !dbg !3635
  %96 = load i32, i32* %16, align 4, !dbg !3636
  %97 = icmp ne i32 %96, 0, !dbg !3636
  br i1 %97, label %98, label %101, !dbg !3638

; <label>:98:                                     ; preds = %93
  %99 = load i32, i32* %16, align 4, !dbg !3639
  %100 = call i8* @cairo_status_to_string(i32 %99), !dbg !3640
  call void (i32, i32, i8*, ...) @_Z5error13ErrorCategoryiPKcz(i32 7, i32 -1, i8* getelementptr inbounds ([20 x i8], [20 x i8]* @.str.138, i32 0, i32 0), i8* %100), !dbg !3641
  br label %101, !dbg !3641

; <label>:101:                                    ; preds = %98, %93
  %102 = load %struct._cairo*, %struct._cairo** %15, align 8, !dbg !3642
  call void @cairo_destroy(%struct._cairo* %102), !dbg !3643
  ret void, !dbg !3644
}

; Function Attrs: noinline nounwind optnone uwtable
define internal void @_ZL7endPageP9GooString(%class.GooString*) #3 !dbg !3645 {
  %2 = alloca %class.GooString*, align 8
  %3 = alloca i32, align 4
  store %class.GooString* %0, %class.GooString** %2, align 8
  call void @llvm.dbg.declare(metadata %class.GooString** %2, metadata !3646, metadata !DIExpression()), !dbg !3647
  call void @llvm.dbg.declare(metadata i32* %3, metadata !3648, metadata !DIExpression()), !dbg !3649
  %4 = load i8, i8* @_ZL8printing, align 1, !dbg !3650
  %5 = trunc i8 %4 to i1, !dbg !3650
  br i1 %5, label %6, label %8, !dbg !3652

; <label>:6:                                      ; preds = %1
  %7 = load %struct._cairo_surface*, %struct._cairo_surface** @_ZL7surface, align 8, !dbg !3653
  call void @cairo_surface_show_page(%struct._cairo_surface* %7), !dbg !3655
  br label %20, !dbg !3656

; <label>:8:                                      ; preds = %1
  %9 = load %class.GooString*, %class.GooString** %2, align 8, !dbg !3657
  call void @_Z14writePageImageP9GooString(%class.GooString* %9), !dbg !3659
  %10 = load %struct._cairo_surface*, %struct._cairo_surface** @_ZL7surface, align 8, !dbg !3660
  call void @cairo_surface_finish(%struct._cairo_surface* %10), !dbg !3661
  %11 = load %struct._cairo_surface*, %struct._cairo_surface** @_ZL7surface, align 8, !dbg !3662
  %12 = call i32 @cairo_surface_status(%struct._cairo_surface* %11), !dbg !3663
  store i32 %12, i32* %3, align 4, !dbg !3664
  %13 = load i32, i32* %3, align 4, !dbg !3665
  %14 = icmp ne i32 %13, 0, !dbg !3665
  br i1 %14, label %15, label %18, !dbg !3667

; <label>:15:                                     ; preds = %8
  %16 = load i32, i32* %3, align 4, !dbg !3668
  %17 = call i8* @cairo_status_to_string(i32 %16), !dbg !3669
  call void (i32, i32, i8*, ...) @_Z5error13ErrorCategoryiPKcz(i32 7, i32 -1, i8* getelementptr inbounds ([20 x i8], [20 x i8]* @.str.138, i32 0, i32 0), i8* %17), !dbg !3670
  br label %18, !dbg !3670

; <label>:18:                                     ; preds = %15, %8
  %19 = load %struct._cairo_surface*, %struct._cairo_surface** @_ZL7surface, align 8, !dbg !3671
  call void @cairo_surface_destroy(%struct._cairo_surface* %19), !dbg !3672
  br label %20

; <label>:20:                                     ; preds = %18, %6
  ret void, !dbg !3673
}

; Function Attrs: noinline nounwind optnone uwtable
define internal void @_ZL11endDocumentv() #3 !dbg !3674 {
  %1 = alloca i32, align 4
  call void @llvm.dbg.declare(metadata i32* %1, metadata !3675, metadata !DIExpression()), !dbg !3676
  %2 = load i8, i8* @_ZL8printing, align 1, !dbg !3677
  %3 = trunc i8 %2 to i1, !dbg !3677
  br i1 %3, label %4, label %17, !dbg !3679

; <label>:4:                                      ; preds = %0
  %5 = load %struct._cairo_surface*, %struct._cairo_surface** @_ZL7surface, align 8, !dbg !3680
  call void @cairo_surface_finish(%struct._cairo_surface* %5), !dbg !3682
  %6 = load %struct._cairo_surface*, %struct._cairo_surface** @_ZL7surface, align 8, !dbg !3683
  %7 = call i32 @cairo_surface_status(%struct._cairo_surface* %6), !dbg !3684
  store i32 %7, i32* %1, align 4, !dbg !3685
  %8 = load i32, i32* %1, align 4, !dbg !3686
  %9 = icmp ne i32 %8, 0, !dbg !3686
  br i1 %9, label %10, label %13, !dbg !3688

; <label>:10:                                     ; preds = %4
  %11 = load i32, i32* %1, align 4, !dbg !3689
  %12 = call i8* @cairo_status_to_string(i32 %11), !dbg !3690
  call void (i32, i32, i8*, ...) @_Z5error13ErrorCategoryiPKcz(i32 7, i32 -1, i8* getelementptr inbounds ([20 x i8], [20 x i8]* @.str.138, i32 0, i32 0), i8* %12), !dbg !3691
  br label %13, !dbg !3691

; <label>:13:                                     ; preds = %10, %4
  %14 = load %struct._cairo_surface*, %struct._cairo_surface** @_ZL7surface, align 8, !dbg !3692
  call void @cairo_surface_destroy(%struct._cairo_surface* %14), !dbg !3693
  %15 = load %struct._IO_FILE*, %struct._IO_FILE** @_ZL11output_file, align 8, !dbg !3694
  %16 = call i32 @fclose(%struct._IO_FILE* %15), !dbg !3695
  br label %17, !dbg !3696

; <label>:17:                                     ; preds = %13, %0
  ret void, !dbg !3697
}

declare void @_ZN6PDFDocD1Ev(%class.PDFDoc*) unnamed_addr #1

declare void @_ZN12GlobalParamsD1Ev(%class.GlobalParams*) unnamed_addr #1

declare void @_ZN6Object8memCheckEP8_IO_FILE(%struct._IO_FILE*) #1

declare void @cairo_surface_finish(%struct._cairo_surface*) #1

declare i32 @cairo_surface_status(%struct._cairo_surface*) #1

declare i8* @cairo_status_to_string(i32) #1

declare void @_Z5error13ErrorCategoryiPKcz(i32, i32, i8*, ...) #1

declare void @cairo_surface_destroy(%struct._cairo_surface*) #1

declare void @cairo_surface_show_page(%struct._cairo_surface*) #1

declare %struct._cairo* @cairo_create(%struct._cairo_surface*) #1

declare void @_ZN14CairoOutputDev8setCairoEP6_cairo(%class.CairoOutputDev*, %struct._cairo*) #1

; Function Attrs: noinline nounwind optnone uwtable
define weak_odr dso_local void @_ZN14CairoOutputDev11setPrintingEb(%class.CairoOutputDev*, i1 zeroext) #3 comdat align 2 !dbg !3698 {
  %3 = alloca %class.CairoOutputDev*, align 8
  %4 = alloca i8, align 1
  store %class.CairoOutputDev* %0, %class.CairoOutputDev** %3, align 8
  call void @llvm.dbg.declare(metadata %class.CairoOutputDev** %3, metadata !3703, metadata !DIExpression()), !dbg !3704
  %5 = zext i1 %1 to i8
  store i8 %5, i8* %4, align 1
  call void @llvm.dbg.declare(metadata i8* %4, metadata !3705, metadata !DIExpression()), !dbg !3706
  %6 = load %class.CairoOutputDev*, %class.CairoOutputDev** %3, align 8
  %7 = load i8, i8* %4, align 1, !dbg !3707
  %8 = trunc i8 %7 to i1, !dbg !3707
  %9 = getelementptr inbounds %class.CairoOutputDev, %class.CairoOutputDev* %6, i32 0, i32 18, !dbg !3708
  %10 = zext i1 %8 to i8, !dbg !3709
  store i8 %10, i8* %9, align 1, !dbg !3709
  %11 = getelementptr inbounds %class.CairoOutputDev, %class.CairoOutputDev* %6, i32 0, i32 17, !dbg !3710
  store i8 1, i8* %11, align 8, !dbg !3711
  ret void, !dbg !3712
}

declare void @cairo_save(%struct._cairo*) #1

declare void @cairo_translate(%struct._cairo*, double, double) #1

declare void @cairo_matrix_init(%struct._cairo_matrix*, double, double, double, double, double, double) #1

declare void @cairo_transform(%struct._cairo*, %struct._cairo_matrix*) #1

; Function Attrs: noinline nounwind optnone uwtable
define internal void @_ZL11getCropSizeddPdS_(double, double, double*, double*) #3 !dbg !3713 {
  %5 = alloca double, align 8
  %6 = alloca double, align 8
  %7 = alloca double*, align 8
  %8 = alloca double*, align 8
  %9 = alloca i32, align 4
  %10 = alloca i32, align 4
  store double %0, double* %5, align 8
  call void @llvm.dbg.declare(metadata double* %5, metadata !3714, metadata !DIExpression()), !dbg !3715
  store double %1, double* %6, align 8
  call void @llvm.dbg.declare(metadata double* %6, metadata !3716, metadata !DIExpression()), !dbg !3717
  store double* %2, double** %7, align 8
  call void @llvm.dbg.declare(metadata double** %7, metadata !3718, metadata !DIExpression()), !dbg !3719
  store double* %3, double** %8, align 8
  call void @llvm.dbg.declare(metadata double** %8, metadata !3720, metadata !DIExpression()), !dbg !3721
  call void @llvm.dbg.declare(metadata i32* %9, metadata !3722, metadata !DIExpression()), !dbg !3723
  %11 = load i32, i32* @_ZL6crop_w, align 4, !dbg !3724
  store i32 %11, i32* %9, align 4, !dbg !3723
  call void @llvm.dbg.declare(metadata i32* %10, metadata !3725, metadata !DIExpression()), !dbg !3726
  %12 = load i32, i32* @_ZL6crop_h, align 4, !dbg !3727
  store i32 %12, i32* %10, align 4, !dbg !3726
  %13 = load i32, i32* %9, align 4, !dbg !3728
  %14 = icmp eq i32 %13, 0, !dbg !3730
  br i1 %14, label %15, label %19, !dbg !3731

; <label>:15:                                     ; preds = %4
  %16 = load double, double* %5, align 8, !dbg !3732
  %17 = call double @llvm.ceil.f64(double %16), !dbg !3733
  %18 = fptosi double %17 to i32, !dbg !3733
  store i32 %18, i32* %9, align 4, !dbg !3734
  br label %19, !dbg !3735

; <label>:19:                                     ; preds = %15, %4
  %20 = load i32, i32* %10, align 4, !dbg !3736
  %21 = icmp eq i32 %20, 0, !dbg !3738
  br i1 %21, label %22, label %26, !dbg !3739

; <label>:22:                                     ; preds = %19
  %23 = load double, double* %6, align 8, !dbg !3740
  %24 = call double @llvm.ceil.f64(double %23), !dbg !3741
  %25 = fptosi double %24 to i32, !dbg !3741
  store i32 %25, i32* %10, align 4, !dbg !3742
  br label %26, !dbg !3743

; <label>:26:                                     ; preds = %22, %19
  %27 = load i32, i32* @_ZL6crop_x, align 4, !dbg !3744
  %28 = load i32, i32* %9, align 4, !dbg !3745
  %29 = add nsw i32 %27, %28, !dbg !3746
  %30 = sitofp i32 %29 to double, !dbg !3744
  %31 = load double, double* %5, align 8, !dbg !3747
  %32 = fcmp ogt double %30, %31, !dbg !3748
  br i1 %32, label %33, label %40, !dbg !3744

; <label>:33:                                     ; preds = %26
  %34 = load double, double* %5, align 8, !dbg !3749
  %35 = load i32, i32* @_ZL6crop_x, align 4, !dbg !3750
  %36 = sitofp i32 %35 to double, !dbg !3750
  %37 = fsub double %34, %36, !dbg !3751
  %38 = call double @llvm.ceil.f64(double %37), !dbg !3752
  %39 = fptosi double %38 to i32, !dbg !3752
  br label %42, !dbg !3744

; <label>:40:                                     ; preds = %26
  %41 = load i32, i32* %9, align 4, !dbg !3753
  br label %42, !dbg !3744

; <label>:42:                                     ; preds = %40, %33
  %43 = phi i32 [ %39, %33 ], [ %41, %40 ], !dbg !3744
  %44 = sitofp i32 %43 to double, !dbg !3754
  %45 = load double*, double** %7, align 8, !dbg !3755
  store double %44, double* %45, align 8, !dbg !3756
  %46 = load i32, i32* @_ZL6crop_y, align 4, !dbg !3757
  %47 = load i32, i32* %10, align 4, !dbg !3758
  %48 = add nsw i32 %46, %47, !dbg !3759
  %49 = sitofp i32 %48 to double, !dbg !3757
  %50 = load double, double* %6, align 8, !dbg !3760
  %51 = fcmp ogt double %49, %50, !dbg !3761
  br i1 %51, label %52, label %59, !dbg !3757

; <label>:52:                                     ; preds = %42
  %53 = load double, double* %6, align 8, !dbg !3762
  %54 = load i32, i32* @_ZL6crop_y, align 4, !dbg !3763
  %55 = sitofp i32 %54 to double, !dbg !3763
  %56 = fsub double %53, %55, !dbg !3764
  %57 = call double @llvm.ceil.f64(double %56), !dbg !3765
  %58 = fptosi double %57 to i32, !dbg !3765
  br label %61, !dbg !3757

; <label>:59:                                     ; preds = %42
  %60 = load i32, i32* %10, align 4, !dbg !3766
  br label %61, !dbg !3757

; <label>:61:                                     ; preds = %59, %52
  %62 = phi i32 [ %58, %52 ], [ %60, %59 ], !dbg !3757
  %63 = sitofp i32 %62 to double, !dbg !3767
  %64 = load double*, double** %8, align 8, !dbg !3768
  store double %63, double* %64, align 8, !dbg !3769
  ret void, !dbg !3770
}

; Function Attrs: noinline nounwind optnone uwtable
define internal void @_ZL21getFitToPageTransformddddP13_cairo_matrix(double, double, double, double, %struct._cairo_matrix*) #3 !dbg !3771 {
  %6 = alloca double, align 8
  %7 = alloca double, align 8
  %8 = alloca double, align 8
  %9 = alloca double, align 8
  %10 = alloca %struct._cairo_matrix*, align 8
  %11 = alloca double, align 8
  %12 = alloca double, align 8
  %13 = alloca double, align 8
  store double %0, double* %6, align 8
  call void @llvm.dbg.declare(metadata double* %6, metadata !3775, metadata !DIExpression()), !dbg !3776
  store double %1, double* %7, align 8
  call void @llvm.dbg.declare(metadata double* %7, metadata !3777, metadata !DIExpression()), !dbg !3778
  store double %2, double* %8, align 8
  call void @llvm.dbg.declare(metadata double* %8, metadata !3779, metadata !DIExpression()), !dbg !3780
  store double %3, double* %9, align 8
  call void @llvm.dbg.declare(metadata double* %9, metadata !3781, metadata !DIExpression()), !dbg !3782
  store %struct._cairo_matrix* %4, %struct._cairo_matrix** %10, align 8
  call void @llvm.dbg.declare(metadata %struct._cairo_matrix** %10, metadata !3783, metadata !DIExpression()), !dbg !3784
  call void @llvm.dbg.declare(metadata double* %11, metadata !3785, metadata !DIExpression()), !dbg !3786
  call void @llvm.dbg.declare(metadata double* %12, metadata !3787, metadata !DIExpression()), !dbg !3788
  call void @llvm.dbg.declare(metadata double* %13, metadata !3789, metadata !DIExpression()), !dbg !3790
  %14 = load double, double* %8, align 8, !dbg !3791
  %15 = load double, double* %6, align 8, !dbg !3792
  %16 = fdiv double %14, %15, !dbg !3793
  store double %16, double* %11, align 8, !dbg !3794
  %17 = load double, double* %9, align 8, !dbg !3795
  %18 = load double, double* %7, align 8, !dbg !3796
  %19 = fdiv double %17, %18, !dbg !3797
  store double %19, double* %12, align 8, !dbg !3798
  %20 = load double, double* %11, align 8, !dbg !3799
  %21 = load double, double* %12, align 8, !dbg !3801
  %22 = fcmp olt double %20, %21, !dbg !3802
  br i1 %22, label %23, label %25, !dbg !3803

; <label>:23:                                     ; preds = %5
  %24 = load double, double* %11, align 8, !dbg !3804
  store double %24, double* %13, align 8, !dbg !3805
  br label %27, !dbg !3806

; <label>:25:                                     ; preds = %5
  %26 = load double, double* %12, align 8, !dbg !3807
  store double %26, double* %13, align 8, !dbg !3808
  br label %27

; <label>:27:                                     ; preds = %25, %23
  %28 = load %struct._cairo_matrix*, %struct._cairo_matrix** %10, align 8, !dbg !3809
  call void @cairo_matrix_init_identity(%struct._cairo_matrix* %28), !dbg !3810
  %29 = load double, double* %13, align 8, !dbg !3811
  %30 = fcmp ogt double %29, 1.000000e+00, !dbg !3813
  br i1 %30, label %31, label %62, !dbg !3814

; <label>:31:                                     ; preds = %27
  %32 = load i8, i8* @_ZL6expand, align 1, !dbg !3815
  %33 = trunc i8 %32 to i1, !dbg !3815
  br i1 %33, label %34, label %38, !dbg !3818

; <label>:34:                                     ; preds = %31
  %35 = load %struct._cairo_matrix*, %struct._cairo_matrix** %10, align 8, !dbg !3819
  %36 = load double, double* %13, align 8, !dbg !3821
  %37 = load double, double* %13, align 8, !dbg !3822
  call void @cairo_matrix_scale(%struct._cairo_matrix* %35, double %36, double %37), !dbg !3823
  br label %61, !dbg !3824

; <label>:38:                                     ; preds = %31
  %39 = load i8, i8* @_ZL8noCenter, align 1, !dbg !3825
  %40 = trunc i8 %39 to i1, !dbg !3825
  br i1 %40, label %51, label %41, !dbg !3827

; <label>:41:                                     ; preds = %38
  %42 = load %struct._cairo_matrix*, %struct._cairo_matrix** %10, align 8, !dbg !3828
  %43 = load double, double* %8, align 8, !dbg !3830
  %44 = load double, double* %6, align 8, !dbg !3831
  %45 = fsub double %43, %44, !dbg !3832
  %46 = fdiv double %45, 2.000000e+00, !dbg !3833
  %47 = load double, double* %9, align 8, !dbg !3834
  %48 = load double, double* %7, align 8, !dbg !3835
  %49 = fsub double %47, %48, !dbg !3836
  %50 = fdiv double %49, 2.000000e+00, !dbg !3837
  call void @cairo_matrix_translate(%struct._cairo_matrix* %42, double %46, double %50), !dbg !3838
  br label %60, !dbg !3839

; <label>:51:                                     ; preds = %38
  %52 = load i8, i8* @_ZL3svg, align 1, !dbg !3840
  %53 = trunc i8 %52 to i1, !dbg !3840
  br i1 %53, label %59, label %54, !dbg !3843

; <label>:54:                                     ; preds = %51
  %55 = load %struct._cairo_matrix*, %struct._cairo_matrix** %10, align 8, !dbg !3844
  %56 = load double, double* %9, align 8, !dbg !3846
  %57 = load double, double* %7, align 8, !dbg !3847
  %58 = fsub double %56, %57, !dbg !3848
  call void @cairo_matrix_translate(%struct._cairo_matrix* %55, double 0.000000e+00, double %58), !dbg !3849
  br label %59, !dbg !3850

; <label>:59:                                     ; preds = %54, %51
  br label %60

; <label>:60:                                     ; preds = %59, %41
  br label %61

; <label>:61:                                     ; preds = %60, %34
  br label %74, !dbg !3851

; <label>:62:                                     ; preds = %27
  %63 = load double, double* %13, align 8, !dbg !3852
  %64 = fcmp olt double %63, 1.000000e+00, !dbg !3854
  br i1 %64, label %65, label %73, !dbg !3855

; <label>:65:                                     ; preds = %62
  %66 = load i8, i8* @_ZL8noShrink, align 1, !dbg !3856
  %67 = trunc i8 %66 to i1, !dbg !3856
  br i1 %67, label %72, label %68, !dbg !3858

; <label>:68:                                     ; preds = %65
  %69 = load %struct._cairo_matrix*, %struct._cairo_matrix** %10, align 8, !dbg !3859
  %70 = load double, double* %13, align 8, !dbg !3861
  %71 = load double, double* %13, align 8, !dbg !3862
  call void @cairo_matrix_scale(%struct._cairo_matrix* %69, double %70, double %71), !dbg !3863
  br label %72, !dbg !3864

; <label>:72:                                     ; preds = %68, %65
  br label %73, !dbg !3856

; <label>:73:                                     ; preds = %72, %62
  br label %74

; <label>:74:                                     ; preds = %73, %61
  ret void, !dbg !3865
}

declare void @cairo_rectangle(%struct._cairo*, double, double, double, double) #1

declare void @cairo_clip(%struct._cairo*) #1

declare void @cairo_scale(%struct._cairo*, double, double) #1

declare void @_ZN6PDFDoc16displayPageSliceEP9OutputDeviddibbbiiiiPFbPvES2_PFbP5AnnotS2_ES2_(%class.PDFDoc*, %class.OutputDev*, i32, double, double, i32, i1 zeroext, i1 zeroext, i1 zeroext, i32, i32, i32, i32, i1 (i8*)*, i8*, i1 (%class.Annot*, i8*)*, i8*) #1

declare void @cairo_restore(%struct._cairo*) #1

declare void @cairo_set_operator(%struct._cairo*, i32) #1

declare void @cairo_set_source_rgb(%struct._cairo*, double, double, double) #1

declare void @cairo_paint(%struct._cairo*) #1

declare i32 @cairo_status(%struct._cairo*) #1

declare void @cairo_destroy(%struct._cairo*) #1

declare void @cairo_matrix_init_identity(%struct._cairo_matrix*) #1

declare void @cairo_matrix_scale(%struct._cairo_matrix*, double, double) #1

declare void @cairo_matrix_translate(%struct._cairo_matrix*, double, double) #1

declare void @cairo_ps_surface_dsc_comment(%struct._cairo_surface*, i8*) #1

declare void @cairo_ps_surface_set_size(%struct._cairo_surface*, double, double) #1

declare void @cairo_pdf_surface_set_size(%struct._cairo_surface*, double, double) #1

declare void @cairo_surface_set_fallback_resolution(%struct._cairo_surface*, double, double) #1

declare %struct._cairo_surface* @cairo_image_surface_create(i32, i32, i32) #1

; Function Attrs: noinline nounwind optnone uwtable
define internal i32 @_ZL11writeStreamPvPKhj(i8*, i8*, i32) #3 !dbg !3866 {
  %4 = alloca i32, align 4
  %5 = alloca i8*, align 8
  %6 = alloca i8*, align 8
  %7 = alloca i32, align 4
  %8 = alloca %struct._IO_FILE*, align 8
  store i8* %0, i8** %5, align 8
  call void @llvm.dbg.declare(metadata i8** %5, metadata !3871, metadata !DIExpression()), !dbg !3872
  store i8* %1, i8** %6, align 8
  call void @llvm.dbg.declare(metadata i8** %6, metadata !3873, metadata !DIExpression()), !dbg !3874
  store i32 %2, i32* %7, align 4
  call void @llvm.dbg.declare(metadata i32* %7, metadata !3875, metadata !DIExpression()), !dbg !3876
  call void @llvm.dbg.declare(metadata %struct._IO_FILE** %8, metadata !3877, metadata !DIExpression()), !dbg !3878
  %9 = load i8*, i8** %5, align 8, !dbg !3879
  %10 = bitcast i8* %9 to %struct._IO_FILE*, !dbg !3880
  store %struct._IO_FILE* %10, %struct._IO_FILE** %8, align 8, !dbg !3878
  %11 = load i8*, i8** %6, align 8, !dbg !3881
  %12 = load i32, i32* %7, align 4, !dbg !3883
  %13 = zext i32 %12 to i64, !dbg !3883
  %14 = load %struct._IO_FILE*, %struct._IO_FILE** %8, align 8, !dbg !3884
  %15 = call i64 @fwrite(i8* %11, i64 %13, i64 1, %struct._IO_FILE* %14), !dbg !3885
  %16 = icmp eq i64 %15, 1, !dbg !3886
  br i1 %16, label %17, label %18, !dbg !3887

; <label>:17:                                     ; preds = %3
  store i32 0, i32* %4, align 4, !dbg !3888
  br label %19, !dbg !3888

; <label>:18:                                     ; preds = %3
  store i32 11, i32* %4, align 4, !dbg !3889
  br label %19, !dbg !3889

; <label>:19:                                     ; preds = %18, %17
  %20 = load i32, i32* %4, align 4, !dbg !3890
  ret i32 %20, !dbg !3890
}

declare %struct._cairo_surface* @cairo_ps_surface_create_for_stream(i32 (i8*, i8*, i32)*, i8*, double, double) #1

declare void @cairo_ps_surface_restrict_to_level(%struct._cairo_surface*, i32) #1

declare void @cairo_ps_surface_set_eps(%struct._cairo_surface*, i32) #1

declare void @cairo_ps_surface_dsc_begin_setup(%struct._cairo_surface*) #1

declare void @cairo_ps_surface_dsc_begin_page_setup(%struct._cairo_surface*) #1

declare %struct._cairo_surface* @cairo_pdf_surface_create_for_stream(i32 (i8*, i8*, i32)*, i8*, double, double) #1

declare %struct._cairo_surface* @cairo_svg_surface_create_for_stream(i32 (i8*, i8*, i32)*, i8*, double, double) #1

declare void @cairo_svg_surface_restrict_to_version(%struct._cairo_surface*, i32) #1

declare i64 @fwrite(i8*, i64, i64, %struct._IO_FILE*) #1

declare void @_ZN9GooStringC1EPKS_(%class.GooString*, %class.GooString*) unnamed_addr #1

; Function Attrs: nounwind
declare i32 @snprintf(i8*, i64, i8*, ...) #10

declare %class.GooString* @_ZN9GooString7appendfEPKcz(%class.GooString*, i8*, ...) #1

declare %class.GooString* @_ZN9GooString6appendEPKci(%class.GooString*, i8*, i32) #1

declare %class.Page* @_ZN6PDFDoc7getPageEi(%class.PDFDoc*, i32) #1

; Function Attrs: noinline nounwind optnone uwtable
define weak_odr dso_local i32 @_ZN4Page9getRotateEv(%class.Page*) #3 comdat align 2 !dbg !3891 {
  %2 = alloca %class.Page*, align 8
  store %class.Page* %0, %class.Page** %2, align 8
  call void @llvm.dbg.declare(metadata %class.Page** %2, metadata !3892, metadata !DIExpression()), !dbg !3893
  %3 = load %class.Page*, %class.Page** %2, align 8
  %4 = getelementptr inbounds %class.Page, %class.Page* %3, i32 0, i32 6, !dbg !3894
  %5 = load %class.PageAttrs*, %class.PageAttrs** %4, align 8, !dbg !3894
  %6 = call i32 @_ZN9PageAttrs9getRotateEv(%class.PageAttrs* %5), !dbg !3895
  ret i32 %6, !dbg !3896
}

; Function Attrs: noinline nounwind optnone uwtable
define weak_odr dso_local i32 @_ZN9PageAttrs9getRotateEv(%class.PageAttrs*) #3 comdat align 2 !dbg !3897 {
  %2 = alloca %class.PageAttrs*, align 8
  store %class.PageAttrs* %0, %class.PageAttrs** %2, align 8
  call void @llvm.dbg.declare(metadata %class.PageAttrs** %2, metadata !3898, metadata !DIExpression()), !dbg !3899
  %3 = load %class.PageAttrs*, %class.PageAttrs** %2, align 8
  %4 = getelementptr inbounds %class.PageAttrs, %class.PageAttrs* %3, i32 0, i32 6, !dbg !3900
  %5 = load i32, i32* %4, align 8, !dbg !3900
  ret i32 %5, !dbg !3901
}

; Function Attrs: noinline nounwind optnone uwtable
define weak_odr dso_local double @_ZN4Page14getMediaHeightEv(%class.Page*) #3 comdat align 2 !dbg !3902 {
  %2 = alloca %class.Page*, align 8
  store %class.Page* %0, %class.Page** %2, align 8
  call void @llvm.dbg.declare(metadata %class.Page** %2, metadata !3903, metadata !DIExpression()), !dbg !3904
  %3 = load %class.Page*, %class.Page** %2, align 8
  %4 = getelementptr inbounds %class.Page, %class.Page* %3, i32 0, i32 6, !dbg !3905
  %5 = load %class.PageAttrs*, %class.PageAttrs** %4, align 8, !dbg !3905
  %6 = call %class.PDFRectangle* @_ZN9PageAttrs11getMediaBoxEv(%class.PageAttrs* %5), !dbg !3906
  %7 = getelementptr inbounds %class.PDFRectangle, %class.PDFRectangle* %6, i32 0, i32 3, !dbg !3907
  %8 = load double, double* %7, align 8, !dbg !3907
  %9 = getelementptr inbounds %class.Page, %class.Page* %3, i32 0, i32 6, !dbg !3908
  %10 = load %class.PageAttrs*, %class.PageAttrs** %9, align 8, !dbg !3908
  %11 = call %class.PDFRectangle* @_ZN9PageAttrs11getMediaBoxEv(%class.PageAttrs* %10), !dbg !3909
  %12 = getelementptr inbounds %class.PDFRectangle, %class.PDFRectangle* %11, i32 0, i32 1, !dbg !3910
  %13 = load double, double* %12, align 8, !dbg !3910
  %14 = fsub double %8, %13, !dbg !3911
  ret double %14, !dbg !3912
}

; Function Attrs: noinline nounwind optnone uwtable
define weak_odr dso_local %class.PDFRectangle* @_ZN9PageAttrs11getMediaBoxEv(%class.PageAttrs*) #3 comdat align 2 !dbg !3913 {
  %2 = alloca %class.PageAttrs*, align 8
  store %class.PageAttrs* %0, %class.PageAttrs** %2, align 8
  call void @llvm.dbg.declare(metadata %class.PageAttrs** %2, metadata !3914, metadata !DIExpression()), !dbg !3915
  %3 = load %class.PageAttrs*, %class.PageAttrs** %2, align 8
  %4 = getelementptr inbounds %class.PageAttrs, %class.PageAttrs* %3, i32 0, i32 0, !dbg !3916
  ret %class.PDFRectangle* %4, !dbg !3917
}

; Function Attrs: noinline nounwind optnone uwtable
define weak_odr dso_local double @_ZN4Page13getMediaWidthEv(%class.Page*) #3 comdat align 2 !dbg !3918 {
  %2 = alloca %class.Page*, align 8
  store %class.Page* %0, %class.Page** %2, align 8
  call void @llvm.dbg.declare(metadata %class.Page** %2, metadata !3919, metadata !DIExpression()), !dbg !3920
  %3 = load %class.Page*, %class.Page** %2, align 8
  %4 = getelementptr inbounds %class.Page, %class.Page* %3, i32 0, i32 6, !dbg !3921
  %5 = load %class.PageAttrs*, %class.PageAttrs** %4, align 8, !dbg !3921
  %6 = call %class.PDFRectangle* @_ZN9PageAttrs11getMediaBoxEv(%class.PageAttrs* %5), !dbg !3922
  %7 = getelementptr inbounds %class.PDFRectangle, %class.PDFRectangle* %6, i32 0, i32 2, !dbg !3923
  %8 = load double, double* %7, align 8, !dbg !3923
  %9 = getelementptr inbounds %class.Page, %class.Page* %3, i32 0, i32 6, !dbg !3924
  %10 = load %class.PageAttrs*, %class.PageAttrs** %9, align 8, !dbg !3924
  %11 = call %class.PDFRectangle* @_ZN9PageAttrs11getMediaBoxEv(%class.PageAttrs* %10), !dbg !3925
  %12 = getelementptr inbounds %class.PDFRectangle, %class.PDFRectangle* %11, i32 0, i32 0, !dbg !3926
  %13 = load double, double* %12, align 8, !dbg !3926
  %14 = fsub double %8, %13, !dbg !3927
  ret double %14, !dbg !3928
}

; Function Attrs: noinline nounwind optnone uwtable
define weak_odr dso_local double @_ZN4Page13getCropHeightEv(%class.Page*) #3 comdat align 2 !dbg !3929 {
  %2 = alloca %class.Page*, align 8
  store %class.Page* %0, %class.Page** %2, align 8
  call void @llvm.dbg.declare(metadata %class.Page** %2, metadata !3930, metadata !DIExpression()), !dbg !3931
  %3 = load %class.Page*, %class.Page** %2, align 8
  %4 = getelementptr inbounds %class.Page, %class.Page* %3, i32 0, i32 6, !dbg !3932
  %5 = load %class.PageAttrs*, %class.PageAttrs** %4, align 8, !dbg !3932
  %6 = call %class.PDFRectangle* @_ZN9PageAttrs10getCropBoxEv(%class.PageAttrs* %5), !dbg !3933
  %7 = getelementptr inbounds %class.PDFRectangle, %class.PDFRectangle* %6, i32 0, i32 3, !dbg !3934
  %8 = load double, double* %7, align 8, !dbg !3934
  %9 = getelementptr inbounds %class.Page, %class.Page* %3, i32 0, i32 6, !dbg !3935
  %10 = load %class.PageAttrs*, %class.PageAttrs** %9, align 8, !dbg !3935
  %11 = call %class.PDFRectangle* @_ZN9PageAttrs10getCropBoxEv(%class.PageAttrs* %10), !dbg !3936
  %12 = getelementptr inbounds %class.PDFRectangle, %class.PDFRectangle* %11, i32 0, i32 1, !dbg !3937
  %13 = load double, double* %12, align 8, !dbg !3937
  %14 = fsub double %8, %13, !dbg !3938
  ret double %14, !dbg !3939
}

; Function Attrs: noinline nounwind optnone uwtable
define weak_odr dso_local %class.PDFRectangle* @_ZN9PageAttrs10getCropBoxEv(%class.PageAttrs*) #3 comdat align 2 !dbg !3940 {
  %2 = alloca %class.PageAttrs*, align 8
  store %class.PageAttrs* %0, %class.PageAttrs** %2, align 8
  call void @llvm.dbg.declare(metadata %class.PageAttrs** %2, metadata !3941, metadata !DIExpression()), !dbg !3942
  %3 = load %class.PageAttrs*, %class.PageAttrs** %2, align 8
  %4 = getelementptr inbounds %class.PageAttrs, %class.PageAttrs* %3, i32 0, i32 1, !dbg !3943
  ret %class.PDFRectangle* %4, !dbg !3944
}

; Function Attrs: noinline nounwind optnone uwtable
define weak_odr dso_local double @_ZN4Page12getCropWidthEv(%class.Page*) #3 comdat align 2 !dbg !3945 {
  %2 = alloca %class.Page*, align 8
  store %class.Page* %0, %class.Page** %2, align 8
  call void @llvm.dbg.declare(metadata %class.Page** %2, metadata !3946, metadata !DIExpression()), !dbg !3947
  %3 = load %class.Page*, %class.Page** %2, align 8
  %4 = getelementptr inbounds %class.Page, %class.Page* %3, i32 0, i32 6, !dbg !3948
  %5 = load %class.PageAttrs*, %class.PageAttrs** %4, align 8, !dbg !3948
  %6 = call %class.PDFRectangle* @_ZN9PageAttrs10getCropBoxEv(%class.PageAttrs* %5), !dbg !3949
  %7 = getelementptr inbounds %class.PDFRectangle, %class.PDFRectangle* %6, i32 0, i32 2, !dbg !3950
  %8 = load double, double* %7, align 8, !dbg !3950
  %9 = getelementptr inbounds %class.Page, %class.Page* %3, i32 0, i32 6, !dbg !3951
  %10 = load %class.PageAttrs*, %class.PageAttrs** %9, align 8, !dbg !3951
  %11 = call %class.PDFRectangle* @_ZN9PageAttrs10getCropBoxEv(%class.PageAttrs* %10), !dbg !3952
  %12 = getelementptr inbounds %class.PDFRectangle, %class.PDFRectangle* %11, i32 0, i32 0, !dbg !3953
  %13 = load double, double* %12, align 8, !dbg !3953
  %14 = fsub double %8, %13, !dbg !3954
  ret double %14, !dbg !3955
}

declare i32 @_ZNK9GooString4cmpNEPKci(%class.GooString*, i8*, i32) #1

; Function Attrs: nounwind readonly
declare i8* @strrchr(i8*, i32) #8

; Function Attrs: nounwind readonly
declare i32 @strcasecmp(i8*, i8*) #8

; Function Attrs: noinline nounwind optnone uwtable
define weak_odr dso_local i32 @_ZN9GooString9getLengthEv(%class.GooString*) #3 comdat align 2 !dbg !3956 {
  %2 = alloca %class.GooString*, align 8
  store %class.GooString* %0, %class.GooString** %2, align 8
  call void @llvm.dbg.declare(metadata %class.GooString** %2, metadata !3957, metadata !DIExpression()), !dbg !3958
  %3 = load %class.GooString*, %class.GooString** %2, align 8
  %4 = getelementptr inbounds %class.GooString, %class.GooString* %3, i32 0, i32 1, !dbg !3959
  %5 = load i32, i32* %4, align 8, !dbg !3959
  ret i32 %5, !dbg !3960
}

declare void @_ZN9GooStringC1EPKci(%class.GooString*, i8*, i32) unnamed_addr #1

; Function Attrs: nounwind readonly
declare i32 @strcmp(i8*, i8*) #8

; Function Attrs: noinline nounwind optnone uwtable
define dso_local zeroext i1 @parseArgs(%struct.ArgDesc*, i32*, i8**) #3 !dbg !3961 {
  %4 = alloca %struct.ArgDesc*, align 8
  %5 = alloca i32*, align 8
  %6 = alloca i8**, align 8
  %7 = alloca %struct.ArgDesc*, align 8
  %8 = alloca i32, align 4
  %9 = alloca i32, align 4
  %10 = alloca i8, align 1
  store %struct.ArgDesc* %0, %struct.ArgDesc** %4, align 8
  call void @llvm.dbg.declare(metadata %struct.ArgDesc** %4, metadata !3965, metadata !DIExpression()), !dbg !3966
  store i32* %1, i32** %5, align 8
  call void @llvm.dbg.declare(metadata i32** %5, metadata !3967, metadata !DIExpression()), !dbg !3968
  store i8** %2, i8*** %6, align 8
  call void @llvm.dbg.declare(metadata i8*** %6, metadata !3969, metadata !DIExpression()), !dbg !3970
  call void @llvm.dbg.declare(metadata %struct.ArgDesc** %7, metadata !3971, metadata !DIExpression()), !dbg !3972
  call void @llvm.dbg.declare(metadata i32* %8, metadata !3973, metadata !DIExpression()), !dbg !3974
  call void @llvm.dbg.declare(metadata i32* %9, metadata !3975, metadata !DIExpression()), !dbg !3976
  call void @llvm.dbg.declare(metadata i8* %10, metadata !3977, metadata !DIExpression()), !dbg !3978
  store i8 1, i8* %10, align 1, !dbg !3979
  store i32 1, i32* %8, align 4, !dbg !3980
  br label %11, !dbg !3981

; <label>:11:                                     ; preds = %70, %3
  %12 = load i32, i32* %8, align 4, !dbg !3982
  %13 = load i32*, i32** %5, align 8, !dbg !3983
  %14 = load i32, i32* %13, align 4, !dbg !3984
  %15 = icmp slt i32 %12, %14, !dbg !3985
  br i1 %15, label %16, label %71, !dbg !3981

; <label>:16:                                     ; preds = %11
  %17 = load i8**, i8*** %6, align 8, !dbg !3986
  %18 = load i32, i32* %8, align 4, !dbg !3989
  %19 = sext i32 %18 to i64, !dbg !3986
  %20 = getelementptr inbounds i8*, i8** %17, i64 %19, !dbg !3986
  %21 = load i8*, i8** %20, align 8, !dbg !3986
  %22 = call i32 @strcmp(i8* %21, i8* getelementptr inbounds ([3 x i8], [3 x i8]* @.str.139, i32 0, i32 0)) #13, !dbg !3990
  %23 = icmp ne i32 %22, 0, !dbg !3990
  br i1 %23, label %49, label %24, !dbg !3991

; <label>:24:                                     ; preds = %16
  %25 = load i32*, i32** %5, align 8, !dbg !3992
  %26 = load i32, i32* %25, align 4, !dbg !3994
  %27 = add nsw i32 %26, -1, !dbg !3994
  store i32 %27, i32* %25, align 4, !dbg !3994
  %28 = load i32, i32* %8, align 4, !dbg !3995
  store i32 %28, i32* %9, align 4, !dbg !3997
  br label %29, !dbg !3998

; <label>:29:                                     ; preds = %45, %24
  %30 = load i32, i32* %9, align 4, !dbg !3999
  %31 = load i32*, i32** %5, align 8, !dbg !4001
  %32 = load i32, i32* %31, align 4, !dbg !4002
  %33 = icmp slt i32 %30, %32, !dbg !4003
  br i1 %33, label %34, label %48, !dbg !4004

; <label>:34:                                     ; preds = %29
  %35 = load i8**, i8*** %6, align 8, !dbg !4005
  %36 = load i32, i32* %9, align 4, !dbg !4006
  %37 = add nsw i32 %36, 1, !dbg !4007
  %38 = sext i32 %37 to i64, !dbg !4005
  %39 = getelementptr inbounds i8*, i8** %35, i64 %38, !dbg !4005
  %40 = load i8*, i8** %39, align 8, !dbg !4005
  %41 = load i8**, i8*** %6, align 8, !dbg !4008
  %42 = load i32, i32* %9, align 4, !dbg !4009
  %43 = sext i32 %42 to i64, !dbg !4008
  %44 = getelementptr inbounds i8*, i8** %41, i64 %43, !dbg !4008
  store i8* %40, i8** %44, align 8, !dbg !4010
  br label %45, !dbg !4008

; <label>:45:                                     ; preds = %34
  %46 = load i32, i32* %9, align 4, !dbg !4011
  %47 = add nsw i32 %46, 1, !dbg !4011
  store i32 %47, i32* %9, align 4, !dbg !4011
  br label %29, !dbg !4012, !llvm.loop !4013

; <label>:48:                                     ; preds = %29
  br label %71, !dbg !4015

; <label>:49:                                     ; preds = %16
  %50 = load %struct.ArgDesc*, %struct.ArgDesc** %4, align 8, !dbg !4016
  %51 = load i8**, i8*** %6, align 8, !dbg !4018
  %52 = load i32, i32* %8, align 4, !dbg !4019
  %53 = sext i32 %52 to i64, !dbg !4018
  %54 = getelementptr inbounds i8*, i8** %51, i64 %53, !dbg !4018
  %55 = load i8*, i8** %54, align 8, !dbg !4018
  %56 = call %struct.ArgDesc* @_ZL7findArgPK7ArgDescPc(%struct.ArgDesc* %50, i8* %55), !dbg !4020
  store %struct.ArgDesc* %56, %struct.ArgDesc** %7, align 8, !dbg !4021
  %57 = icmp ne %struct.ArgDesc* %56, null, !dbg !4022
  br i1 %57, label %58, label %66, !dbg !4023

; <label>:58:                                     ; preds = %49
  %59 = load %struct.ArgDesc*, %struct.ArgDesc** %7, align 8, !dbg !4024
  %60 = load i32, i32* %8, align 4, !dbg !4027
  %61 = load i32*, i32** %5, align 8, !dbg !4028
  %62 = load i8**, i8*** %6, align 8, !dbg !4029
  %63 = call zeroext i1 @_ZL7grabArgPK7ArgDesciPiPPc(%struct.ArgDesc* %59, i32 %60, i32* %61, i8** %62), !dbg !4030
  br i1 %63, label %65, label %64, !dbg !4031

; <label>:64:                                     ; preds = %58
  store i8 0, i8* %10, align 1, !dbg !4032
  br label %65, !dbg !4033

; <label>:65:                                     ; preds = %64, %58
  br label %69, !dbg !4034

; <label>:66:                                     ; preds = %49
  %67 = load i32, i32* %8, align 4, !dbg !4035
  %68 = add nsw i32 %67, 1, !dbg !4035
  store i32 %68, i32* %8, align 4, !dbg !4035
  br label %69

; <label>:69:                                     ; preds = %66, %65
  br label %70

; <label>:70:                                     ; preds = %69
  br label %11, !dbg !3981, !llvm.loop !4037

; <label>:71:                                     ; preds = %48, %11
  %72 = load i8, i8* %10, align 1, !dbg !4039
  %73 = trunc i8 %72 to i1, !dbg !4039
  ret i1 %73, !dbg !4040
}

; Function Attrs: noinline nounwind optnone uwtable
define internal %struct.ArgDesc* @_ZL7findArgPK7ArgDescPc(%struct.ArgDesc*, i8*) #3 !dbg !4041 {
  %3 = alloca %struct.ArgDesc*, align 8
  %4 = alloca %struct.ArgDesc*, align 8
  %5 = alloca i8*, align 8
  %6 = alloca %struct.ArgDesc*, align 8
  store %struct.ArgDesc* %0, %struct.ArgDesc** %4, align 8
  call void @llvm.dbg.declare(metadata %struct.ArgDesc** %4, metadata !4044, metadata !DIExpression()), !dbg !4045
  store i8* %1, i8** %5, align 8
  call void @llvm.dbg.declare(metadata i8** %5, metadata !4046, metadata !DIExpression()), !dbg !4047
  call void @llvm.dbg.declare(metadata %struct.ArgDesc** %6, metadata !4048, metadata !DIExpression()), !dbg !4049
  %7 = load %struct.ArgDesc*, %struct.ArgDesc** %4, align 8, !dbg !4050
  store %struct.ArgDesc* %7, %struct.ArgDesc** %6, align 8, !dbg !4052
  br label %8, !dbg !4053

; <label>:8:                                      ; preds = %28, %2
  %9 = load %struct.ArgDesc*, %struct.ArgDesc** %6, align 8, !dbg !4054
  %10 = getelementptr inbounds %struct.ArgDesc, %struct.ArgDesc* %9, i32 0, i32 0, !dbg !4056
  %11 = load i8*, i8** %10, align 8, !dbg !4056
  %12 = icmp ne i8* %11, null, !dbg !4054
  br i1 %12, label %13, label %31, !dbg !4057

; <label>:13:                                     ; preds = %8
  %14 = load %struct.ArgDesc*, %struct.ArgDesc** %6, align 8, !dbg !4058
  %15 = getelementptr inbounds %struct.ArgDesc, %struct.ArgDesc* %14, i32 0, i32 1, !dbg !4061
  %16 = load i32, i32* %15, align 8, !dbg !4061
  %17 = icmp slt i32 %16, 5, !dbg !4062
  br i1 %17, label %18, label %27, !dbg !4063

; <label>:18:                                     ; preds = %13
  %19 = load %struct.ArgDesc*, %struct.ArgDesc** %6, align 8, !dbg !4064
  %20 = getelementptr inbounds %struct.ArgDesc, %struct.ArgDesc* %19, i32 0, i32 0, !dbg !4065
  %21 = load i8*, i8** %20, align 8, !dbg !4065
  %22 = load i8*, i8** %5, align 8, !dbg !4066
  %23 = call i32 @strcmp(i8* %21, i8* %22) #13, !dbg !4067
  %24 = icmp ne i32 %23, 0, !dbg !4067
  br i1 %24, label %27, label %25, !dbg !4068

; <label>:25:                                     ; preds = %18
  %26 = load %struct.ArgDesc*, %struct.ArgDesc** %6, align 8, !dbg !4069
  store %struct.ArgDesc* %26, %struct.ArgDesc** %3, align 8, !dbg !4070
  br label %32, !dbg !4070

; <label>:27:                                     ; preds = %18, %13
  br label %28, !dbg !4071

; <label>:28:                                     ; preds = %27
  %29 = load %struct.ArgDesc*, %struct.ArgDesc** %6, align 8, !dbg !4072
  %30 = getelementptr inbounds %struct.ArgDesc, %struct.ArgDesc* %29, i32 1, !dbg !4072
  store %struct.ArgDesc* %30, %struct.ArgDesc** %6, align 8, !dbg !4072
  br label %8, !dbg !4073, !llvm.loop !4074

; <label>:31:                                     ; preds = %8
  store %struct.ArgDesc* null, %struct.ArgDesc** %3, align 8, !dbg !4076
  br label %32, !dbg !4076

; <label>:32:                                     ; preds = %31, %25
  %33 = load %struct.ArgDesc*, %struct.ArgDesc** %3, align 8, !dbg !4077
  ret %struct.ArgDesc* %33, !dbg !4077
}

; Function Attrs: noinline nounwind optnone uwtable
define internal zeroext i1 @_ZL7grabArgPK7ArgDesciPiPPc(%struct.ArgDesc*, i32, i32*, i8**) #3 !dbg !4078 {
  %5 = alloca %struct.ArgDesc*, align 8
  %6 = alloca i32, align 4
  %7 = alloca i32*, align 8
  %8 = alloca i8**, align 8
  %9 = alloca i32, align 4
  %10 = alloca i32, align 4
  %11 = alloca i8, align 1
  store %struct.ArgDesc* %0, %struct.ArgDesc** %5, align 8
  call void @llvm.dbg.declare(metadata %struct.ArgDesc** %5, metadata !4081, metadata !DIExpression()), !dbg !4082
  store i32 %1, i32* %6, align 4
  call void @llvm.dbg.declare(metadata i32* %6, metadata !4083, metadata !DIExpression()), !dbg !4084
  store i32* %2, i32** %7, align 8
  call void @llvm.dbg.declare(metadata i32** %7, metadata !4085, metadata !DIExpression()), !dbg !4086
  store i8** %3, i8*** %8, align 8
  call void @llvm.dbg.declare(metadata i8*** %8, metadata !4087, metadata !DIExpression()), !dbg !4088
  call void @llvm.dbg.declare(metadata i32* %9, metadata !4089, metadata !DIExpression()), !dbg !4090
  call void @llvm.dbg.declare(metadata i32* %10, metadata !4091, metadata !DIExpression()), !dbg !4092
  call void @llvm.dbg.declare(metadata i8* %11, metadata !4093, metadata !DIExpression()), !dbg !4094
  store i8 1, i8* %11, align 1, !dbg !4095
  store i32 0, i32* %9, align 4, !dbg !4096
  %12 = load %struct.ArgDesc*, %struct.ArgDesc** %5, align 8, !dbg !4097
  %13 = getelementptr inbounds %struct.ArgDesc, %struct.ArgDesc* %12, i32 0, i32 1, !dbg !4098
  %14 = load i32, i32* %13, align 8, !dbg !4098
  switch i32 %14, label %128 [
    i32 0, label %15
    i32 1, label %19
    i32 2, label %47
    i32 3, label %75
    i32 4, label %108
  ], !dbg !4099

; <label>:15:                                     ; preds = %4
  %16 = load %struct.ArgDesc*, %struct.ArgDesc** %5, align 8, !dbg !4100
  %17 = getelementptr inbounds %struct.ArgDesc, %struct.ArgDesc* %16, i32 0, i32 2, !dbg !4102
  %18 = load i8*, i8** %17, align 8, !dbg !4102
  store i8 1, i8* %18, align 1, !dbg !4103
  store i32 1, i32* %9, align 4, !dbg !4104
  br label %131, !dbg !4105

; <label>:19:                                     ; preds = %4
  %20 = load i32, i32* %6, align 4, !dbg !4106
  %21 = add nsw i32 %20, 1, !dbg !4108
  %22 = load i32*, i32** %7, align 8, !dbg !4109
  %23 = load i32, i32* %22, align 4, !dbg !4110
  %24 = icmp slt i32 %21, %23, !dbg !4111
  br i1 %24, label %25, label %45, !dbg !4112

; <label>:25:                                     ; preds = %19
  %26 = load i8**, i8*** %8, align 8, !dbg !4113
  %27 = load i32, i32* %6, align 4, !dbg !4114
  %28 = add nsw i32 %27, 1, !dbg !4115
  %29 = sext i32 %28 to i64, !dbg !4113
  %30 = getelementptr inbounds i8*, i8** %26, i64 %29, !dbg !4113
  %31 = load i8*, i8** %30, align 8, !dbg !4113
  %32 = call zeroext i1 @isInt(i8* %31), !dbg !4116
  br i1 %32, label %33, label %45, !dbg !4117

; <label>:33:                                     ; preds = %25
  %34 = load i8**, i8*** %8, align 8, !dbg !4118
  %35 = load i32, i32* %6, align 4, !dbg !4120
  %36 = add nsw i32 %35, 1, !dbg !4121
  %37 = sext i32 %36 to i64, !dbg !4118
  %38 = getelementptr inbounds i8*, i8** %34, i64 %37, !dbg !4118
  %39 = load i8*, i8** %38, align 8, !dbg !4118
  %40 = call i32 @atoi(i8* %39) #13, !dbg !4122
  %41 = load %struct.ArgDesc*, %struct.ArgDesc** %5, align 8, !dbg !4123
  %42 = getelementptr inbounds %struct.ArgDesc, %struct.ArgDesc* %41, i32 0, i32 2, !dbg !4124
  %43 = load i8*, i8** %42, align 8, !dbg !4124
  %44 = bitcast i8* %43 to i32*, !dbg !4125
  store i32 %40, i32* %44, align 4, !dbg !4126
  store i32 2, i32* %9, align 4, !dbg !4127
  br label %46, !dbg !4128

; <label>:45:                                     ; preds = %25, %19
  store i8 0, i8* %11, align 1, !dbg !4129
  store i32 1, i32* %9, align 4, !dbg !4131
  br label %46

; <label>:46:                                     ; preds = %45, %33
  br label %131, !dbg !4132

; <label>:47:                                     ; preds = %4
  %48 = load i32, i32* %6, align 4, !dbg !4133
  %49 = add nsw i32 %48, 1, !dbg !4135
  %50 = load i32*, i32** %7, align 8, !dbg !4136
  %51 = load i32, i32* %50, align 4, !dbg !4137
  %52 = icmp slt i32 %49, %51, !dbg !4138
  br i1 %52, label %53, label %73, !dbg !4139

; <label>:53:                                     ; preds = %47
  %54 = load i8**, i8*** %8, align 8, !dbg !4140
  %55 = load i32, i32* %6, align 4, !dbg !4141
  %56 = add nsw i32 %55, 1, !dbg !4142
  %57 = sext i32 %56 to i64, !dbg !4140
  %58 = getelementptr inbounds i8*, i8** %54, i64 %57, !dbg !4140
  %59 = load i8*, i8** %58, align 8, !dbg !4140
  %60 = call zeroext i1 @isFP(i8* %59), !dbg !4143
  br i1 %60, label %61, label %73, !dbg !4144

; <label>:61:                                     ; preds = %53
  %62 = load i8**, i8*** %8, align 8, !dbg !4145
  %63 = load i32, i32* %6, align 4, !dbg !4147
  %64 = add nsw i32 %63, 1, !dbg !4148
  %65 = sext i32 %64 to i64, !dbg !4145
  %66 = getelementptr inbounds i8*, i8** %62, i64 %65, !dbg !4145
  %67 = load i8*, i8** %66, align 8, !dbg !4145
  %68 = call double @gatof(i8* %67), !dbg !4149
  %69 = load %struct.ArgDesc*, %struct.ArgDesc** %5, align 8, !dbg !4150
  %70 = getelementptr inbounds %struct.ArgDesc, %struct.ArgDesc* %69, i32 0, i32 2, !dbg !4151
  %71 = load i8*, i8** %70, align 8, !dbg !4151
  %72 = bitcast i8* %71 to double*, !dbg !4152
  store double %68, double* %72, align 8, !dbg !4153
  store i32 2, i32* %9, align 4, !dbg !4154
  br label %74, !dbg !4155

; <label>:73:                                     ; preds = %53, %47
  store i8 0, i8* %11, align 1, !dbg !4156
  store i32 1, i32* %9, align 4, !dbg !4158
  br label %74

; <label>:74:                                     ; preds = %73, %61
  br label %131, !dbg !4159

; <label>:75:                                     ; preds = %4
  %76 = load i32, i32* %6, align 4, !dbg !4160
  %77 = add nsw i32 %76, 1, !dbg !4162
  %78 = load i32*, i32** %7, align 8, !dbg !4163
  %79 = load i32, i32* %78, align 4, !dbg !4164
  %80 = icmp slt i32 %77, %79, !dbg !4165
  br i1 %80, label %81, label %106, !dbg !4166

; <label>:81:                                     ; preds = %75
  %82 = load %struct.ArgDesc*, %struct.ArgDesc** %5, align 8, !dbg !4167
  %83 = getelementptr inbounds %struct.ArgDesc, %struct.ArgDesc* %82, i32 0, i32 2, !dbg !4169
  %84 = load i8*, i8** %83, align 8, !dbg !4169
  %85 = load i8**, i8*** %8, align 8, !dbg !4170
  %86 = load i32, i32* %6, align 4, !dbg !4171
  %87 = add nsw i32 %86, 1, !dbg !4172
  %88 = sext i32 %87 to i64, !dbg !4170
  %89 = getelementptr inbounds i8*, i8** %85, i64 %88, !dbg !4170
  %90 = load i8*, i8** %89, align 8, !dbg !4170
  %91 = load %struct.ArgDesc*, %struct.ArgDesc** %5, align 8, !dbg !4173
  %92 = getelementptr inbounds %struct.ArgDesc, %struct.ArgDesc* %91, i32 0, i32 3, !dbg !4174
  %93 = load i32, i32* %92, align 8, !dbg !4174
  %94 = sub nsw i32 %93, 1, !dbg !4175
  %95 = sext i32 %94 to i64, !dbg !4173
  %96 = call i8* @strncpy(i8* %84, i8* %90, i64 %95) #2, !dbg !4176
  %97 = load %struct.ArgDesc*, %struct.ArgDesc** %5, align 8, !dbg !4177
  %98 = getelementptr inbounds %struct.ArgDesc, %struct.ArgDesc* %97, i32 0, i32 2, !dbg !4178
  %99 = load i8*, i8** %98, align 8, !dbg !4178
  %100 = load %struct.ArgDesc*, %struct.ArgDesc** %5, align 8, !dbg !4179
  %101 = getelementptr inbounds %struct.ArgDesc, %struct.ArgDesc* %100, i32 0, i32 3, !dbg !4180
  %102 = load i32, i32* %101, align 8, !dbg !4180
  %103 = sub nsw i32 %102, 1, !dbg !4181
  %104 = sext i32 %103 to i64, !dbg !4182
  %105 = getelementptr inbounds i8, i8* %99, i64 %104, !dbg !4182
  store i8 0, i8* %105, align 1, !dbg !4183
  store i32 2, i32* %9, align 4, !dbg !4184
  br label %107, !dbg !4185

; <label>:106:                                    ; preds = %75
  store i8 0, i8* %11, align 1, !dbg !4186
  store i32 1, i32* %9, align 4, !dbg !4188
  br label %107

; <label>:107:                                    ; preds = %106, %81
  br label %131, !dbg !4189

; <label>:108:                                    ; preds = %4
  %109 = load i32, i32* %6, align 4, !dbg !4190
  %110 = add nsw i32 %109, 1, !dbg !4192
  %111 = load i32*, i32** %7, align 8, !dbg !4193
  %112 = load i32, i32* %111, align 4, !dbg !4194
  %113 = icmp slt i32 %110, %112, !dbg !4195
  br i1 %113, label %114, label %126, !dbg !4196

; <label>:114:                                    ; preds = %108
  %115 = load %struct.ArgDesc*, %struct.ArgDesc** %5, align 8, !dbg !4197
  %116 = getelementptr inbounds %struct.ArgDesc, %struct.ArgDesc* %115, i32 0, i32 2, !dbg !4199
  %117 = load i8*, i8** %116, align 8, !dbg !4199
  %118 = bitcast i8* %117 to %class.GooString*, !dbg !4200
  %119 = load i8**, i8*** %8, align 8, !dbg !4201
  %120 = load i32, i32* %6, align 4, !dbg !4202
  %121 = add nsw i32 %120, 1, !dbg !4203
  %122 = sext i32 %121 to i64, !dbg !4201
  %123 = getelementptr inbounds i8*, i8** %119, i64 %122, !dbg !4201
  %124 = load i8*, i8** %123, align 8, !dbg !4201
  %125 = call %class.GooString* @_ZN9GooString3SetEPKciS1_i(%class.GooString* %118, i8* %124, i32 -1, i8* null, i32 -1), !dbg !4204
  store i32 2, i32* %9, align 4, !dbg !4205
  br label %127, !dbg !4206

; <label>:126:                                    ; preds = %108
  store i8 0, i8* %11, align 1, !dbg !4207
  store i32 1, i32* %9, align 4, !dbg !4209
  br label %127

; <label>:127:                                    ; preds = %126, %114
  br label %131, !dbg !4210

; <label>:128:                                    ; preds = %4
  %129 = load %struct._IO_FILE*, %struct._IO_FILE** @stderr, align 8, !dbg !4211
  %130 = call i32 (%struct._IO_FILE*, i8*, ...) @fprintf(%struct._IO_FILE* %129, i8* getelementptr inbounds ([29 x i8], [29 x i8]* @.str.11.140, i32 0, i32 0)), !dbg !4212
  store i32 1, i32* %9, align 4, !dbg !4213
  br label %131, !dbg !4214

; <label>:131:                                    ; preds = %128, %127, %107, %74, %46, %15
  %132 = load i32, i32* %9, align 4, !dbg !4215
  %133 = icmp sgt i32 %132, 0, !dbg !4217
  br i1 %133, label %134, label %161, !dbg !4218

; <label>:134:                                    ; preds = %131
  %135 = load i32, i32* %9, align 4, !dbg !4219
  %136 = load i32*, i32** %7, align 8, !dbg !4221
  %137 = load i32, i32* %136, align 4, !dbg !4222
  %138 = sub nsw i32 %137, %135, !dbg !4222
  store i32 %138, i32* %136, align 4, !dbg !4222
  %139 = load i32, i32* %6, align 4, !dbg !4223
  store i32 %139, i32* %10, align 4, !dbg !4225
  br label %140, !dbg !4226

; <label>:140:                                    ; preds = %157, %134
  %141 = load i32, i32* %10, align 4, !dbg !4227
  %142 = load i32*, i32** %7, align 8, !dbg !4229
  %143 = load i32, i32* %142, align 4, !dbg !4230
  %144 = icmp slt i32 %141, %143, !dbg !4231
  br i1 %144, label %145, label %160, !dbg !4232

; <label>:145:                                    ; preds = %140
  %146 = load i8**, i8*** %8, align 8, !dbg !4233
  %147 = load i32, i32* %10, align 4, !dbg !4234
  %148 = load i32, i32* %9, align 4, !dbg !4235
  %149 = add nsw i32 %147, %148, !dbg !4236
  %150 = sext i32 %149 to i64, !dbg !4233
  %151 = getelementptr inbounds i8*, i8** %146, i64 %150, !dbg !4233
  %152 = load i8*, i8** %151, align 8, !dbg !4233
  %153 = load i8**, i8*** %8, align 8, !dbg !4237
  %154 = load i32, i32* %10, align 4, !dbg !4238
  %155 = sext i32 %154 to i64, !dbg !4237
  %156 = getelementptr inbounds i8*, i8** %153, i64 %155, !dbg !4237
  store i8* %152, i8** %156, align 8, !dbg !4239
  br label %157, !dbg !4237

; <label>:157:                                    ; preds = %145
  %158 = load i32, i32* %10, align 4, !dbg !4240
  %159 = add nsw i32 %158, 1, !dbg !4240
  store i32 %159, i32* %10, align 4, !dbg !4240
  br label %140, !dbg !4241, !llvm.loop !4242

; <label>:160:                                    ; preds = %140
  br label %161, !dbg !4244

; <label>:161:                                    ; preds = %160, %131
  %162 = load i8, i8* %11, align 1, !dbg !4245
  %163 = trunc i8 %162 to i1, !dbg !4245
  ret i1 %163, !dbg !4246
}

; Function Attrs: noinline nounwind optnone uwtable
define dso_local zeroext i1 @isInt(i8*) #3 !dbg !4247 {
  %2 = alloca i1, align 1
  %3 = alloca i8*, align 8
  store i8* %0, i8** %3, align 8
  call void @llvm.dbg.declare(metadata i8** %3, metadata !4250, metadata !DIExpression()), !dbg !4251
  %4 = load i8*, i8** %3, align 8, !dbg !4252
  %5 = load i8, i8* %4, align 1, !dbg !4254
  %6 = sext i8 %5 to i32, !dbg !4254
  %7 = icmp eq i32 %6, 45, !dbg !4255
  br i1 %7, label %13, label %8, !dbg !4256

; <label>:8:                                      ; preds = %1
  %9 = load i8*, i8** %3, align 8, !dbg !4257
  %10 = load i8, i8* %9, align 1, !dbg !4258
  %11 = sext i8 %10 to i32, !dbg !4258
  %12 = icmp eq i32 %11, 43, !dbg !4259
  br i1 %12, label %13, label %16, !dbg !4260

; <label>:13:                                     ; preds = %8, %1
  %14 = load i8*, i8** %3, align 8, !dbg !4261
  %15 = getelementptr inbounds i8, i8* %14, i32 1, !dbg !4261
  store i8* %15, i8** %3, align 8, !dbg !4261
  br label %16, !dbg !4261

; <label>:16:                                     ; preds = %13, %8
  br label %17, !dbg !4262

; <label>:17:                                     ; preds = %23, %16
  %18 = load i8*, i8** %3, align 8, !dbg !4263
  %19 = load i8, i8* %18, align 1, !dbg !4264
  %20 = sext i8 %19 to i32, !dbg !4264
  %21 = call i32 @isdigit(i32 %20) #13, !dbg !4265
  %22 = icmp ne i32 %21, 0, !dbg !4265
  br i1 %22, label %23, label %26, !dbg !4262

; <label>:23:                                     ; preds = %17
  %24 = load i8*, i8** %3, align 8, !dbg !4266
  %25 = getelementptr inbounds i8, i8* %24, i32 1, !dbg !4266
  store i8* %25, i8** %3, align 8, !dbg !4266
  br label %17, !dbg !4262, !llvm.loop !4267

; <label>:26:                                     ; preds = %17
  %27 = load i8*, i8** %3, align 8, !dbg !4269
  %28 = load i8, i8* %27, align 1, !dbg !4271
  %29 = icmp ne i8 %28, 0, !dbg !4271
  br i1 %29, label %30, label %31, !dbg !4272

; <label>:30:                                     ; preds = %26
  store i1 false, i1* %2, align 1, !dbg !4273
  br label %32, !dbg !4273

; <label>:31:                                     ; preds = %26
  store i1 true, i1* %2, align 1, !dbg !4274
  br label %32, !dbg !4274

; <label>:32:                                     ; preds = %31, %30
  %33 = load i1, i1* %2, align 1, !dbg !4275
  ret i1 %33, !dbg !4275
}

; Function Attrs: nounwind readonly
declare i32 @atoi(i8*) #8

; Function Attrs: noinline nounwind optnone uwtable
define dso_local zeroext i1 @isFP(i8*) #3 !dbg !4276 {
  %2 = alloca i1, align 1
  %3 = alloca i8*, align 8
  %4 = alloca i32, align 4
  store i8* %0, i8** %3, align 8
  call void @llvm.dbg.declare(metadata i8** %3, metadata !4277, metadata !DIExpression()), !dbg !4278
  call void @llvm.dbg.declare(metadata i32* %4, metadata !4279, metadata !DIExpression()), !dbg !4280
  %5 = load i8*, i8** %3, align 8, !dbg !4281
  %6 = load i8, i8* %5, align 1, !dbg !4283
  %7 = sext i8 %6 to i32, !dbg !4283
  %8 = icmp eq i32 %7, 45, !dbg !4284
  br i1 %8, label %14, label %9, !dbg !4285

; <label>:9:                                      ; preds = %1
  %10 = load i8*, i8** %3, align 8, !dbg !4286
  %11 = load i8, i8* %10, align 1, !dbg !4287
  %12 = sext i8 %11 to i32, !dbg !4287
  %13 = icmp eq i32 %12, 43, !dbg !4288
  br i1 %13, label %14, label %17, !dbg !4289

; <label>:14:                                     ; preds = %9, %1
  %15 = load i8*, i8** %3, align 8, !dbg !4290
  %16 = getelementptr inbounds i8, i8* %15, i32 1, !dbg !4290
  store i8* %16, i8** %3, align 8, !dbg !4290
  br label %17, !dbg !4290

; <label>:17:                                     ; preds = %14, %9
  store i32 0, i32* %4, align 4, !dbg !4291
  br label %18, !dbg !4292

; <label>:18:                                     ; preds = %24, %17
  %19 = load i8*, i8** %3, align 8, !dbg !4293
  %20 = load i8, i8* %19, align 1, !dbg !4294
  %21 = sext i8 %20 to i32, !dbg !4294
  %22 = call i32 @isdigit(i32 %21) #13, !dbg !4295
  %23 = icmp ne i32 %22, 0, !dbg !4295
  br i1 %23, label %24, label %29, !dbg !4292

; <label>:24:                                     ; preds = %18
  %25 = load i8*, i8** %3, align 8, !dbg !4296
  %26 = getelementptr inbounds i8, i8* %25, i32 1, !dbg !4296
  store i8* %26, i8** %3, align 8, !dbg !4296
  %27 = load i32, i32* %4, align 4, !dbg !4298
  %28 = add nsw i32 %27, 1, !dbg !4298
  store i32 %28, i32* %4, align 4, !dbg !4298
  br label %18, !dbg !4292, !llvm.loop !4299

; <label>:29:                                     ; preds = %18
  %30 = load i8*, i8** %3, align 8, !dbg !4301
  %31 = load i8, i8* %30, align 1, !dbg !4303
  %32 = sext i8 %31 to i32, !dbg !4303
  %33 = icmp eq i32 %32, 46, !dbg !4304
  br i1 %33, label %34, label %37, !dbg !4305

; <label>:34:                                     ; preds = %29
  %35 = load i8*, i8** %3, align 8, !dbg !4306
  %36 = getelementptr inbounds i8, i8* %35, i32 1, !dbg !4306
  store i8* %36, i8** %3, align 8, !dbg !4306
  br label %37, !dbg !4306

; <label>:37:                                     ; preds = %34, %29
  br label %38, !dbg !4307

; <label>:38:                                     ; preds = %44, %37
  %39 = load i8*, i8** %3, align 8, !dbg !4308
  %40 = load i8, i8* %39, align 1, !dbg !4309
  %41 = sext i8 %40 to i32, !dbg !4309
  %42 = call i32 @isdigit(i32 %41) #13, !dbg !4310
  %43 = icmp ne i32 %42, 0, !dbg !4310
  br i1 %43, label %44, label %49, !dbg !4307

; <label>:44:                                     ; preds = %38
  %45 = load i8*, i8** %3, align 8, !dbg !4311
  %46 = getelementptr inbounds i8, i8* %45, i32 1, !dbg !4311
  store i8* %46, i8** %3, align 8, !dbg !4311
  %47 = load i32, i32* %4, align 4, !dbg !4313
  %48 = add nsw i32 %47, 1, !dbg !4313
  store i32 %48, i32* %4, align 4, !dbg !4313
  br label %38, !dbg !4307, !llvm.loop !4314

; <label>:49:                                     ; preds = %38
  %50 = load i32, i32* %4, align 4, !dbg !4316
  %51 = icmp sgt i32 %50, 0, !dbg !4318
  br i1 %51, label %52, label %95, !dbg !4319

; <label>:52:                                     ; preds = %49
  %53 = load i8*, i8** %3, align 8, !dbg !4320
  %54 = load i8, i8* %53, align 1, !dbg !4321
  %55 = sext i8 %54 to i32, !dbg !4321
  %56 = icmp eq i32 %55, 101, !dbg !4322
  br i1 %56, label %62, label %57, !dbg !4323

; <label>:57:                                     ; preds = %52
  %58 = load i8*, i8** %3, align 8, !dbg !4324
  %59 = load i8, i8* %58, align 1, !dbg !4325
  %60 = sext i8 %59 to i32, !dbg !4325
  %61 = icmp eq i32 %60, 69, !dbg !4326
  br i1 %61, label %62, label %95, !dbg !4327

; <label>:62:                                     ; preds = %57, %52
  %63 = load i8*, i8** %3, align 8, !dbg !4328
  %64 = getelementptr inbounds i8, i8* %63, i32 1, !dbg !4328
  store i8* %64, i8** %3, align 8, !dbg !4328
  %65 = load i8*, i8** %3, align 8, !dbg !4330
  %66 = load i8, i8* %65, align 1, !dbg !4332
  %67 = sext i8 %66 to i32, !dbg !4332
  %68 = icmp eq i32 %67, 45, !dbg !4333
  br i1 %68, label %74, label %69, !dbg !4334

; <label>:69:                                     ; preds = %62
  %70 = load i8*, i8** %3, align 8, !dbg !4335
  %71 = load i8, i8* %70, align 1, !dbg !4336
  %72 = sext i8 %71 to i32, !dbg !4336
  %73 = icmp eq i32 %72, 43, !dbg !4337
  br i1 %73, label %74, label %77, !dbg !4338

; <label>:74:                                     ; preds = %69, %62
  %75 = load i8*, i8** %3, align 8, !dbg !4339
  %76 = getelementptr inbounds i8, i8* %75, i32 1, !dbg !4339
  store i8* %76, i8** %3, align 8, !dbg !4339
  br label %77, !dbg !4339

; <label>:77:                                     ; preds = %74, %69
  store i32 0, i32* %4, align 4, !dbg !4340
  %78 = load i8*, i8** %3, align 8, !dbg !4341
  %79 = load i8, i8* %78, align 1, !dbg !4343
  %80 = sext i8 %79 to i32, !dbg !4343
  %81 = call i32 @isdigit(i32 %80) #13, !dbg !4344
  %82 = icmp ne i32 %81, 0, !dbg !4344
  br i1 %82, label %84, label %83, !dbg !4345

; <label>:83:                                     ; preds = %77
  store i1 false, i1* %2, align 1, !dbg !4346
  br label %101, !dbg !4346

; <label>:84:                                     ; preds = %77
  br label %85, !dbg !4347

; <label>:85:                                     ; preds = %88, %84
  %86 = load i8*, i8** %3, align 8, !dbg !4348
  %87 = getelementptr inbounds i8, i8* %86, i32 1, !dbg !4348
  store i8* %87, i8** %3, align 8, !dbg !4348
  br label %88, !dbg !4350

; <label>:88:                                     ; preds = %85
  %89 = load i8*, i8** %3, align 8, !dbg !4351
  %90 = load i8, i8* %89, align 1, !dbg !4352
  %91 = sext i8 %90 to i32, !dbg !4352
  %92 = call i32 @isdigit(i32 %91) #13, !dbg !4353
  %93 = icmp ne i32 %92, 0, !dbg !4353
  br i1 %93, label %85, label %94, !dbg !4350, !llvm.loop !4354

; <label>:94:                                     ; preds = %88
  br label %95, !dbg !4356

; <label>:95:                                     ; preds = %94, %57, %49
  %96 = load i8*, i8** %3, align 8, !dbg !4357
  %97 = load i8, i8* %96, align 1, !dbg !4359
  %98 = icmp ne i8 %97, 0, !dbg !4359
  br i1 %98, label %99, label %100, !dbg !4360

; <label>:99:                                     ; preds = %95
  store i1 false, i1* %2, align 1, !dbg !4361
  br label %101, !dbg !4361

; <label>:100:                                    ; preds = %95
  store i1 true, i1* %2, align 1, !dbg !4362
  br label %101, !dbg !4362

; <label>:101:                                    ; preds = %100, %99, %83
  %102 = load i1, i1* %2, align 1, !dbg !4363
  ret i1 %102, !dbg !4363
}

declare double @gatof(i8*) #1

; Function Attrs: nounwind
declare i8* @strncpy(i8*, i8*, i64) #10

declare %class.GooString* @_ZN9GooString3SetEPKciS1_i(%class.GooString*, i8*, i32, i8*, i32) #1

; Function Attrs: nounwind readonly
declare i32 @isdigit(i32) #8

; Function Attrs: noinline nounwind optnone uwtable
define dso_local void @printUsage(i8*, i8*, %struct.ArgDesc*) #3 !dbg !4364 {
  %4 = alloca i8*, align 8
  %5 = alloca i8*, align 8
  %6 = alloca %struct.ArgDesc*, align 8
  %7 = alloca %struct.ArgDesc*, align 8
  %8 = alloca i8*, align 8
  %9 = alloca i32, align 4
  %10 = alloca i32, align 4
  store i8* %0, i8** %4, align 8
  call void @llvm.dbg.declare(metadata i8** %4, metadata !4367, metadata !DIExpression()), !dbg !4368
  store i8* %1, i8** %5, align 8
  call void @llvm.dbg.declare(metadata i8** %5, metadata !4369, metadata !DIExpression()), !dbg !4370
  store %struct.ArgDesc* %2, %struct.ArgDesc** %6, align 8
  call void @llvm.dbg.declare(metadata %struct.ArgDesc** %6, metadata !4371, metadata !DIExpression()), !dbg !4372
  call void @llvm.dbg.declare(metadata %struct.ArgDesc** %7, metadata !4373, metadata !DIExpression()), !dbg !4374
  call void @llvm.dbg.declare(metadata i8** %8, metadata !4375, metadata !DIExpression()), !dbg !4376
  call void @llvm.dbg.declare(metadata i32* %9, metadata !4377, metadata !DIExpression()), !dbg !4378
